******************************************************************************
                  TI ARM Linker PC v18.12.3                    
******************************************************************************
>> Linked Tue Dec 10 09:58:55 2019

OUTPUT FILE NAME:   <collector_CC1352R1_LAUNCHXL_tirtos_ccs_syscfg.out>
ENTRY POINT SYMBOL: "ResetISR"  address: 00010cbd


MEMORY CONFIGURATION

         name            origin    length      used     unused   attr    fill
----------------------  --------  ---------  --------  --------  ----  --------
  FLASH                 00000000   0004e000  00015d9c  00038264  R  X
  FLASH_NV              0004e000   00008000  00008000  00000000  RW X
  FLASH_LAST            00056000   00002000  00002000  00000000  R  X
  SRAM                  20000000   00014000  000042f7  0000fd09  RW X


SEGMENT ALLOCATION MAP

run origin  load origin   length   init length attrs members
----------  ----------- ---------- ----------- ----- -------
00000000    00000000    00015da0   00015da0    r-x
  00000000    00000000    0000003c   0000003c    r-- .resetVecs
  0000003c    0000003c    00001d30   00001d30    r-- .const
  00001d6c    00001d6c    000000cc   000000cc    r-- config_const
  00001e38    00001e38    00013b1c   00013b1c    r-x .text.1
  00015958    00015958    00000448   00000448    r-- .cinit
0004e000    0004e000    00008000   00000000    rw-
  0004e000    0004e000    00008000   00000000    rw- .TI.bound:flashBuf0
00056000    00056000    00002000   00002000    r-x
  00056000    00056000    00001fa8   00001fa8    r-x .text.2
  00057fa8    00057fa8    00000058   00000058    r-- .ccfg
20000100    20000100    00003cc3   00000000    rw-
  20000100    20000100    00000004   00000000    rw- .data:xdcRomConstPtr
  20000104    20000104    00000004   00000000    rw- .data:xdcRomExternFuncPtr
  20000108    20000108    00000004   00000000    rw- .data:xdcRomStatePtr
  2000010c    2000010c    00000010   00000000    rw- .data:RAM_MAC_BASE_ADDR
  20000120    20000120    00002bf5   00000000    rw- .data
  20002d18    20002d18    000010ab   00000000    rw- .bss
20013aa0    20013aa0    00000560   00000000    rw-
  20013aa0    20013aa0    00000560   00000000    rw- .stack


SECTION ALLOCATION MAP

 output                                  attributes/
section   page    origin      length       input sections
--------  ----  ----------  ----------   ----------------
.const     0    0000003c    00001d30     
                  0000003c    00000568     hmac_rom_init.obj (.const:HMAC_ROM_Flash_JT)
                  000005a4    000003b8     app_pem4f.oem4f (.const:ROM_constStruct)
                  0000095c    00000258     fh_rom_init.obj (.const:FH_ROM_Flash_JT)
                  00000bb4    00000188     <whole-program> (.const:.string)
                  00000d3c    00000154     rf_multiMode_cc13x2.aem4f : rf_patch_cpe_prop.c.cc13x2.ccs.o (.const:patchImageProp)
                  00000e90    00000101     rtsv7M4_T_le_v4SPD16_eabi.lib : ctype.c.obj (.const:.string:_ctypes_)
                  00000f91    00000100     crc.obj (.const:.string:crc_table$23)
                  00001091    000000f8     mac_cfg.obj (.const:macPibTbl)
                  00001189    00000002     ti_drivers_config.obj (.const:ButtonHWAttrs)
                  0000118b    00000001     ti_drivers_config.obj (.const:aesccmCC26XXHWAttrs)
                  0000118c    000000cc     lmac_rom_init.obj (.const:LMAC_ROM_Flash_JT)
                  00001258    000000ac     ti_radio_config.obj (.const:$O3$$)
                  00001304    00000088     mac_cfg.obj (.const:macPibDefaults)
                  0000138c    00000078     cllc.obj (.const:$O7$$)
                  00001404    0000006e     maclib_secure_cc13x2.a : hmac_global.obj (.const:macAssociatingSt)
                  00001472    0000006e                            : hmac_global.obj (.const:macIdleSt)
                  000014e0    0000006e                            : hmac_global.obj (.const:macPollingSt)
                  0000154e    0000006e                            : hmac_global.obj (.const:macScanningSt)
                  000015bc    0000006e                            : hmac_global.obj (.const:macStartingSt)
                  0000162a    00000002     cllc.obj (.const:keyUsageList$5)
                  0000162c    0000006c     icall_osal_rom_init.obj (.const:ICALL_OSAL_ROM_Flash_JT)
                  00001698    00000058     mac_cfg.obj (.const:macSecurityPibTbl)
                  000016f0    00000054     drivers_cc13x2.aem4f : PowerCC26X2.oem4f (.const:resourceDB)
                  00001744    00000050     mac_cfg.obj (.const:macMRFSKStdPhyTable)
                  00001794    0000004c     drivers_cc13x2.aem4f : Random.oem4f (.const:$P$T0$1)
                  000017e0    00000048     app_pem4f.oem4f (.const:.string)
                  00001828    00000048     app_pem4f.oem4f (.const:ROM_externFuncPtrs)
                  00001870    00000040     maclib_secure_cc13x2.a : hmac_global.obj (.const:macTimerRolloverValue)
                  000018b0    00000038                            : hmac_global.obj (.const:macCmdIncludeFHIe)
                  000018e8    00000028     drivers_cc13x2.aem4f : NVSCC26XX.oem4f (.const:NVSCC26XX_fxnTable)
                  00001910    00000028                          : UARTCC26XX.oem4f (.const:UARTCC26XX_fxnTable)
                  00001938    00000028     app_pem4f.oem4f (.const:ti_sysbios_heaps_HeapCallback_Module__FXNS__C)
                  00001960    00000028     ti_drivers_config.obj (.const:uartCC26XXHWAttrs)
                  00001988    00000028     app_pem4f.oem4f (.const:xdc_runtime_Startup_sfxnTab__A)
                  000019b0    00000024     drivers_cc13x2.aem4f : UART.oem4f (.const:UART_defaultParams)
                  000019d4    00000024     app_pem4f.oem4f (.const:ti_sysbios_gates_GateMutexPri_Module__FXNS__C)
                  000019f8    00000020     rf_multiMode_cc13x2.aem4f : RFCC26X2_multiMode.c.cc13x2.ccs.o (.const:RF_defaultParams)
                  00001a18    00000020     cllc.obj (.const:keyDeviceList$5)
                  00001a38    00000020     app_pem4f.oem4f (.const:ti_sysbios_gates_GateMutexPri_Object__DESC__C)
                  00001a58    00000020     app_pem4f.oem4f (.const:ti_sysbios_heaps_HeapCallback_Object__DESC__C)
                  00001a78    0000001c     CC1352R1_LAUNCHXL_fxns.obj (.const:$O1$$)
                  00001a94    0000001c     ti_drivers_config.obj (.const:BoardGpioInitTable)
                  00001ab0    0000001c     app_pem4f.oem4f (.const:ti_sysbios_heaps_HeapCallback_Object__PARAMS__C)
                  00001acc    00000018     drivers_cc13x2.aem4f : PWM.oem4f (.const:PWM_defaultParams)
                  00001ae4    00000018                          : GPIOCC26XX.oem4f (.const:interruptType)
                  00001afc    00000018     maclib_secure_cc13x2.a : hmac_global.obj (.const:macSendMsgBufSize)
                  00001b14    00000018     app_pem4f.oem4f (.const:ti_sysbios_gates_GateMutexPri_Object__PARAMS__C)
                  00001b2c    00000014     ti_drivers_config.obj (.const:GPIOCC26XX_config)
                  00001b40    00000014     ti_drivers_config.obj (.const:PowerCC26X2_config)
                  00001b54    00000014     drivers_cc13x2.aem4f : UARTCC26XX.oem4f (.const:parityType)
                  00001b68    00000014     app_pem4f.oem4f (.const:xdc_runtime_Startup_sfxnRts__A)
                  00001b7c    00000013     macTask.obj (.const:.string:msacbackSizeTable)
                  00001b8f    00000001     app_pem4f.oem4f (.const:xdc_runtime_Text_charTab__A)
                  00001b90    00000010     drivers_cc13x2.aem4f : AESCCM.oem4f (.const:AESCCM_defaultParams)
                  00001ba0    00000010     ti_drivers_config.obj (.const:Button_config)
                  00001bb0    00000010     drivers_cc13x2.aem4f : Button.oem4f (.const:Button_defaultParams)
                  00001bc0    00000010     ti_drivers_config.obj (.const:LED_config)
                  00001bd0    00000010     drivers_cc13x2.aem4f : TRNG.oem4f (.const:TRNG_defaultParams)
                  00001be0    00000010                          : UARTCC26XX.oem4f (.const:dataLength)
                  00001bf0    00000010     maclib_secure_cc13x2.a : hmac_global.obj (.const:macIEEEPhyTable)
                  00001c00    00000010     drivers_cc13x2.aem4f : GPIOCC26XX.oem4f (.const:outPinTypes)
                  00001c10    0000000e     maclib_secure_cc13x2.a : hmac_global.obj (.const:.string:macCmdBufSize)
                  00001c1e    0000000e                            : hmac_global.obj (.const:.string:macTxFrameFailed)
                  00001c2c    0000000e                            : hmac_global.obj (.const:.string:macTxFrameSuccess)
                  00001c3a    00000002     --HOLE-- [fill = 0]
                  00001c3c    0000000c     drivers_cc13x2.aem4f : Random.oem4f (.const:$P$T1$2)
                  00001c48    0000000c     maclib_secure_cc13x2.a : hmac_global.obj (.const:.string:macCbackEventTbl)
                  00001c54    0000000c                            : hmac_global.obj (.const:.string:macSendMsgDataSize)
                  00001c60    0000000c     ti_drivers_config.obj (.const:NVS_config)
                  00001c6c    0000000c     ti_drivers_config.obj (.const:RFCC26XX_hwAttrs)
                  00001c78    0000000c     ti_drivers_config.obj (.const:UART_config)
                  00001c84    0000000c     drivers_cc13x2.aem4f : GPIOCC26XX.oem4f (.const:inPinTypes)
                  00001c90    0000000c                          : GPIOCC26XX.oem4f (.const:outPinStrengths)
                  00001c9c    0000000c     app_pem4f.oem4f (.const:xdc_runtime_Startup_firstFxns__A)
                  00001ca8    00000009     maclib_secure_cc13x2.a : hmac_global.obj (.const:.string:macCmdLen)
                  00001cb1    00000003     --HOLE-- [fill = 0]
                  00001cb4    00000008                            : mac_rx.obj (.const:$O23$$)
                  00001cbc    00000008     driverlib.lib : aux_sysif.obj (.const:$O27$$)
                  00001cc4    00000008     main.obj (.const:.string:dummyExtAddr$7)
                  00001ccc    00000008     maclib_secure_cc13x2.a : hmac_global.obj (.const:.string:macAuthTagLen)
                  00001cd4    00000008     ti_drivers_config.obj (.const:AESCCM_config)
                  00001cdc    00000008     drivers_cc13x2.aem4f : LED.oem4f (.const:LED_defaultParams)
                  00001ce4    00000008     ti_drivers_config.obj (.const:PINCC26XX_hwAttrs)
                  00001cec    00000008     rf_multiMode_cc13x2.aem4f : RFCC26X2_multiMode.c.cc13x2.ccs.o (.const:RFCC26XX_schedulerPolicy)
                  00001cf4    00000008     ti_drivers_config.obj (.const:nvsCC26XXHWAttrs)
                  00001cfc    00000008     drivers_cc13x2.aem4f : UARTCC26XX.oem4f (.const:stopBits)
                  00001d04    00000008     app_pem4f.oem4f (.const:ti_sysbios_family_arm_m3_Hwi_excHookFuncs__A)
                  00001d0c    00000006     drivers_cc13x2.aem4f : UARTCC26XX.oem4f (.const:.string:rxFifoBytes)
                  00001d12    00000006                          : UARTCC26XX.oem4f (.const:.string:rxFifoThreshold)
                  00001d18    00000006                          : UARTCC26XX.oem4f (.const:.string:txFifoBytes)
                  00001d1e    00000006                          : UARTCC26XX.oem4f (.const:.string:txFifoThreshold)
                  00001d24    00000006     ti_drivers_config.obj (.const)
                  00001d2a    00000005     csf.obj (.const:.string:$P$T0$4$4)
                  00001d2f    00000001     --HOLE-- [fill = 0]
                  00001d30    00000004     cui.obj (.const:$O9$$)
                  00001d34    00000004     maclib_secure_cc13x2.a : hmac_global.obj (.const:.string:macKeySourceLen)
                  00001d38    00000004     ti_drivers_config.obj (.const:LEDHWAttrs)
                  00001d3c    00000004     drivers_cc13x2.aem4f : NVS.oem4f (.const:NVS_defaultParams)
                  00001d40    00000004     app_pem4f.oem4f (.const:ti_sysbios_gates_GateMutexPri_Instance_State_pendQ__O)
                  00001d44    00000004     app_pem4f.oem4f (.const:ti_sysbios_heaps_HeapCallback_Object__count__C)
                  00001d48    00000004     app_pem4f.oem4f (.const:ti_sysbios_heaps_HeapCallback_allocInstFxn__C)
                  00001d4c    00000004     app_pem4f.oem4f (.const:ti_sysbios_heaps_HeapCallback_createInstFxn__C)
                  00001d50    00000004     app_pem4f.oem4f (.const:ti_sysbios_heaps_HeapCallback_deleteInstFxn__C)
                  00001d54    00000004     app_pem4f.oem4f (.const:ti_sysbios_heaps_HeapCallback_freeInstFxn__C)
                  00001d58    00000004     app_pem4f.oem4f (.const:ti_sysbios_heaps_HeapCallback_getStatsInstFxn__C)
                  00001d5c    00000004     app_pem4f.oem4f (.const:ti_sysbios_heaps_HeapCallback_initInstFxn__C)
                  00001d60    00000004     app_pem4f.oem4f (.const:ti_sysbios_heaps_HeapCallback_isBlockingInstFxn__C)
                  00001d64    00000004     app_pem4f.oem4f (.const:ti_sysbios_knl_Clock_tickPeriod__C)
                  00001d68    00000004     app_pem4f.oem4f (.const:ti_sysbios_knl_Idle_funcList__A)

config_const 
*          0    00001d6c    000000cc     
                  00001d6c    0000006c     mac_user_config.obj (.const:macRfDriverTable)
                  00001dd8    00000040     mac_user_config.obj (.const:macCryptoDriverTable)
                  00001e18    00000020     mac_user_config.obj (.const:$P$T0$1$22)

.cinit     0    00015958    00000448     
                  00015958    000003e3     (.cinit..data.load) [load image, compression = lzss]
                  00015d3b    00000001     --HOLE-- [fill = 0]
                  00015d3c    0000000c     (__TI_handler_table)
                  00015d48    00000008     (.cinit..bss.load) [load image, compression = zero_init]
                  00015d50    00000008     (.cinit..data:RAM_MAC_BASE_ADDR.load) [load image, compression = zero_init]
                  00015d58    00000008     (.cinit..data:xdcRomConstPtr.load) [load image, compression = lzss]
                  00015d60    00000008     (.cinit..data:xdcRomExternFuncPtr.load) [load image, compression = lzss]
                  00015d68    00000008     (.cinit..data:xdcRomStatePtr.load) [load image, compression = lzss]
                  00015d70    00000030     (__TI_cinit_table)

.init_array 
*          0    00000000    00000000     UNINITIALIZED

.TI.bound:flashBuf0 
*          0    0004e000    00008000     UNINITIALIZED
                  0004e000    00008000     ti_drivers_config.obj (.TI.bound:flashBuf0)

.ccfg      0    00057fa8    00000058     
                  00057fa8    00000058     ti_devices_config.obj (.ccfg:retain)

.data:xdcRomConstPtr 
*          0    20000100    00000004     UNINITIALIZED
                  20000100    00000004     app_pem4f.oem4f (.data:xdcRomConstPtr)

.data:xdcRomExternFuncPtr 
*          0    20000104    00000004     UNINITIALIZED
                  20000104    00000004     app_pem4f.oem4f (.data:xdcRomExternFuncPtr)

.data:xdcRomStatePtr 
*          0    20000108    00000004     UNINITIALIZED
                  20000108    00000004     app_pem4f.oem4f (.data:xdcRomStatePtr)

.data      0    20000120    00002bf5     UNINITIALIZED
                  20000120    00000914     cui.obj (.data:$O8$$)
                  20000a34    000008c4     macTask.obj (.data:$O12$$)
                  200012f8    000006b0     main.obj (.data:$O10$$)
                  200019a8    00000334     cllc.obj (.data:$O6$$)
                  20001cdc    000001ac     csf.obj (.data:$O5$$)
                  20001e88    00000198     mac_settings.obj (.data:$O11$$)
                  20002020    00000188     osal_port.obj (.data:$O13$$)
                  200021a8    00000110     drivers_cc13x2.aem4f : PowerCC26X2.oem4f (.data:PowerCC26X2_module)
                  200022b8    0000010c     app_pem4f.oem4f (.data:ROM_stateStruct)
                  200023c4    00000004     maclib_secure_cc13x2.a : mac_autopend.obj (.data:$O19$$)
                  200023c8    000000a8                            : mac.obj (.data:$O18$$)
                  20002470    000000a0     mac_cfg.obj (.data:macMRFSKGenPhyTable)
                  20002510    0000009c     collector.obj (.data:$O4$$)
                  200025ac    00000078     nvocmp.obj (.data:$O15$$)
                  20002624    00000074     ti_radio_config.obj (.data:$O2$$)
                  20002698    0000006c     maclib_secure_cc13x2.a : hmac_global.obj (.data:fhObject)
                  20002704    00000058     csf.obj (.data:appSubMenu)
                  2000275c    00000050     cui.obj (.data:cuiMultiMenu)
                  200027ac    0000004c     app_pem4f.oem4f (.data:ti_sysbios_knl_Task_Object__table__V)
                  200027f8    00000048     app_pem4f.oem4f (.data:ti_sysbios_family_arm_cc26xx_Timer_Object__table__V)
                  20002840    00000040     maclib_secure_cc13x2.a : mac_radio.obj (.data:$O20$$)
                  20002880    00000040     csf.obj (.data:commissionSubMenu)
                  200028c0    00000040     csf.obj (.data:configureSubMenu)
                  20002900    00000040     csf.obj (.data:csfMainMenu)
                  20002940    00000038     app_pem4f.oem4f (.data:ti_sysbios_gates_GateMutex_Object__table__V)
                  20002978    00000034     api_mac.obj (.data:$O16$$)
                  200029ac    00000034     maclib_secure_cc13x2.a : hmac_global.obj (.data:macBeaconPayload)
                  200029e0    00000030                            : hmac_global.obj (.data)
                  20002a10    00000030     app_pem4f.oem4f (.data:ti_sysbios_knl_Swi_Module_State_0_readyQ__A)
                  20002a40    00000030     app_pem4f.oem4f (.data:ti_sysbios_knl_Swi_Object__table__V)
                  20002a70    00000030     app_pem4f.oem4f (.data:ti_sysbios_knl_Task_Module_State_0_readyQ__A)
                  20002aa0    00000028     maclib_secure_cc13x2.a : mac_symbol_timer.obj (.data:$O24$$)
                  20002ac8    00000024                            : mac_radio_tx.obj (.data:$O21$$)
                  20002aec    00000024                            : mac_tx.obj (.data:$O25$$)
                  20002b10    00000024                            : hmac_global.obj (.data:macActionSet)
                  20002b34    00000004     drivers_cc13x2.aem4f : GPIOCC26XX.oem4f (.data:gpioPinTable)
                  20002b38    00000020                          : TRNGCC26XX.oem4f (.data:entropyPoolBuffer)
                  20002b58    00000020     app_pem4f.oem4f (.data:ti_sysbios_knl_Clock_Object__table__V)
                  20002b78    00000020     app_pem4f.oem4f (.data:xdc_runtime_Error_IgnoreBlock)
                  20002b98    0000001c     ti_radio_config.obj (.data:pOverrides_2gfsk50kbps154g)
                  20002bb4    00000018     app_pem4f.oem4f (.data:ti_sysbios_family_arm_m3_Hwi_Object__table__V)
                  20002bcc    00000015     cui.obj (.data:gpMultiMenuTitle$6)
                  20002be1    00000002     drivers_cc13x2.aem4f : CryptoResourceCC26XX.oem4f (.data)
                  20002be3    00000001                          : AESCCMCC26XX.oem4f (.data)
                  20002be4    00000014     maclib_secure_cc13x2.a : hmac_global.obj (.data:macStateTbl)
                  20002bf8    00000010     osal_port_timers.obj (.data:$O14$$)
                  20002c08    00000010     ti_drivers_config.obj (.data:gpioCallbackFunctions)
                  20002c18    00000010     ti_drivers_config.obj (.data:gpioPinConfigs)
                  20002c28    00000010     mac_cfg.obj (.data:macCfg)
                  20002c38    0000000f     maclib_secure_cc13x2.a : mac.obj (.data)
                  20002c47    00000001     drivers_cc13x2.aem4f : NVS.oem4f (.data)
                  20002c48    0000000c     maclib_secure_cc13x2.a : mac_hl_patch.obj (.data:$O17$$)
                  20002c54    0000000c     app_pem4f.oem4f (.data:ti_sysbios_heaps_HeapCallback_Object__table__V)
                  20002c60    00000008     rtsv7M4_T_le_v4SPD16_eabi.lib : _lock.c.obj (.data:$O28$$)
                  20002c68    00000008     drivers_cc13x2.aem4f : PINCC26XX.oem4f (.data)
                  20002c70    00000008                          : TRNGCC26XX.oem4f (.data:jobList)
                  20002c78    00000008     app_pem4f.oem4f (.data:ti_sysbios_family_arm_m3_Hwi_Module__root__V)
                  20002c80    00000008     app_pem4f.oem4f (.data:ti_sysbios_gates_GateHwi_Module__root__V)
                  20002c88    00000008     app_pem4f.oem4f (.data:ti_sysbios_gates_GateMutexPri_Module__root__V)
                  20002c90    00000008     app_pem4f.oem4f (.data:ti_sysbios_gates_GateMutex_Module__root__V)
                  20002c98    00000008     app_pem4f.oem4f (.data:ti_sysbios_hal_Hwi_Module__root__V)
                  20002ca0    00000008     app_pem4f.oem4f (.data:ti_sysbios_heaps_HeapCallback_Module__root__V)
                  20002ca8    00000008     app_pem4f.oem4f (.data:ti_sysbios_heaps_HeapMem_Module__root__V)
                  20002cb0    00000008     app_pem4f.oem4f (.data:ti_sysbios_knl_Clock_Module__root__V)
                  20002cb8    00000008     app_pem4f.oem4f (.data:ti_sysbios_knl_Event_Module__root__V)
                  20002cc0    00000008     app_pem4f.oem4f (.data:ti_sysbios_knl_Mailbox_Module__root__V)
                  20002cc8    00000008     app_pem4f.oem4f (.data:ti_sysbios_knl_Queue_Module__root__V)
                  20002cd0    00000008     app_pem4f.oem4f (.data:ti_sysbios_knl_Semaphore_Module__root__V)
                  20002cd8    00000008     app_pem4f.oem4f (.data:ti_sysbios_knl_Swi_Module__root__V)
                  20002ce0    00000008     app_pem4f.oem4f (.data:ti_sysbios_knl_Task_Module__root__V)
                  20002ce8    00000005     drivers_cc13x2.aem4f : GPIOCC26XX.oem4f (.data)
                  20002ced    00000002                          : TRNGCC26XX.oem4f (.data)
                  20002cef    00000001                          : PWM.oem4f (.data)
                  20002cf0    00000004     hal_appasrt.obj (.data)
                  20002cf4    00000004     maclib_secure_cc13x2.a : lmac_global.obj (.data)
                  20002cf8    00000004     osal_port.obj (.data)
                  20002cfc    00000004     rtsv7M4_T_le_v4SPD16_eabi.lib : errno.c.obj (.data)
                  20002d00    00000004                                   : stkdepth_vars.c.obj (.data)
                  20002d04    00000004     app_pem4f.oem4f (.data:ti_sysbios_family_arm_m3_Hwi_Module_State_0_excContext__A)
                  20002d08    00000004     app_pem4f.oem4f (.data:ti_sysbios_family_arm_m3_Hwi_Module_State_0_excStack__A)
                  20002d0c    00000004     app_pem4f.oem4f (.data:ti_sysbios_knl_Task_Module_State_0_idleTask__A)
                  20002d10    00000002     app_pem4f.oem4f (.data:ti_sysbios_family_arm_m3_Hwi_Module_State_0_excActive__A)
                  20002d12    00000001     drivers_cc13x2.aem4f : UART.oem4f (.data)
                  20002d13    00000001     maclib_secure_cc13x2.a : mac_sleep.obj (.data)
                  20002d14    00000001     rf_multiMode_cc13x2.aem4f : rf_patch_cpe_prop.c.cc13x2.ccs.o (.data)

.bss       0    20002d18    000010ab     UNINITIALIZED
                  20002d18    00000450     rf_multiMode_cc13x2.aem4f : RFCC26X2_multiMode.c.cc13x2.ccs.o (.bss:$O1$$)
                  20003168    00000200     app_pem4f.oem4f (.bss:taskStackSection)
                  20003368    0000012c     (.common:uartCC26XXObjects)
                  20003494    000000fc     (.common:enhancedAckBuf)
                  20003590    000000d8     (.common:ti_sysbios_family_arm_m3_Hwi_dispatchTable)
                  20003668    000000a8     maclib_secure_cc13x2.a : mac_radio.obj (.bss:RF_object$37)
                  20003710    00000088     (.common:macPib)
                  20003798    0000007c     (.common:pinHandleTable)
                  20003814    00000078     (.common:LEDObjects)
                  2000388c    00000054     (.common:macScan)
                  200038e0    00000050     (.common:ButtonObjects)
                  20003930    00000040     (.common:macSecurityPib)
                  20003970    0000003c     (.common:macBeaconCoord)
                  200039ac    00000038     (.common:macDeviceAction1)
                  200039e4    00000034     drivers_cc13x2.aem4f : PINCC26XX.oem4f (.bss:pinSwi)
                  20003a18    00000034     (.common:macBeaconDevice)
                  20003a4c    0000002c     (.common:macCoord)
                  20003a78    0000002c     (.common:macDevice)
                  20003aa4    00000028     maclib_secure_cc13x2.a : mac_rx.obj (.bss:$O22$$)
                  20003acc    00000028     (.common:macMgmtAction1)
                  20003af4    00000020     drivers_cc13x2.aem4f : GPIOCC26XX.oem4f (.bss:gpioCallbackInfo)
                  20003b14    00000020                          : PINCC26XX.oem4f (.bss:pinGpioConfigTable)
                  20003b34    00000020     ti_drivers_config.obj (.bss:uartCC26XXRingBuffer0)
                  20003b54    00000020     (.common:macBeacon)
                  20003b74    0000001c     driverlib.lib : osc.obj (.bss:$O26$$)
                  20003b90    0000001c     drivers_cc13x2.aem4f : TRNGCC26XX.oem4f (.bss:TRNGCC26XX_hwi)
                  20003bac    0000001c                          : TRNGCC26XX.oem4f (.bss:entropyPool)
                  20003bc8    0000001c                          : PINCC26XX.oem4f (.bss:pinHwi)
                  20003be4    0000001c                          : PINCC26XX.oem4f (.bss:pinSemaphore)
                  20003c00    0000001c     (.common:CryptoResourceCC26XX_accessSemaphore)
                  20003c1c    0000001c     (.common:CryptoResourceCC26XX_hwi)
                  20003c38    0000001c     (.common:CryptoResourceCC26XX_operationSemaphore)
                  20003c54    0000001c     (.common:macCoordAction2)
                  20003c70    0000001c     (.common:macReset)
                  20003c8c    00000018     (.common:aesccmCC26XXObjects)
                  20003ca4    00000018     (.common:macScanAction)
                  20003cbc    00000014     rf_multiMode_cc13x2.aem4f : RFCC26X2_multiMode.c.cc13x2.ccs.o (.bss:RF_ratSyncCmd)
                  20003cd0    00000014     drivers_cc13x2.aem4f : Random.oem4f (.bss:state)
                  20003ce4    00000014     (.common:macDeviceAction2)
                  20003cf8    00000014     (.common:macMgmtAction2)
                  20003d0c    00000010     (.common:macBeaconDeviceAction)
                  20003d1c    00000010     (.common:macCoordAction3)
                  20003d2c    00000010     (.common:macData)
                  20003d3c    00000010     (.common:macDataTxDelay)
                  20003d4c    0000000c                          : NVSCC26XX.oem4f (.bss)
                  20003d58    0000000c                          : GPIOCC26XX.oem4f (.bss:gpioPinState)
                  20003d64    0000000c     (.common:macMain)
                  20003d70    00000008                          : GPIOCC26XX.oem4f (.bss)
                  20003d78    00000008     (.common:macBeaconCoordAction1)
                  20003d80    00000008     (.common:macCoordAction1)
                  20003d88    00000004                          : PINCC26XX.oem4f (.bss)
                  20003d8c    00000004     (.common:AESCCM_handle)
                  20003d90    00000004     (.common:ClockP_tickPeriod)
                  20003d94    00000004     (.common:FH_test_var)
                  20003d98    00000004     (.common:PowerCC26XX_swiKey)
                  20003d9c    00000004     (.common:PowerCC26XX_taskKey)
                  20003da0    00000004     (.common:macCryptoDrvTblPtr)
                  20003da4    00000004     (.common:macTimerActive)
                  20003da8    00000004     (.common:nvsCC26XXObjects)
                  20003dac    00000004     (.common:timerAlignedQ)
                  20003db0    00000004     (.common:timerUnalignedQ)
                  20003db4    00000001     maclib_secure_cc13x2.a : mac_tx.obj (.bss)
                  20003db5    00000001     rf_multiMode_cc13x2.aem4f : RFCC26X2_multiMode.c.cc13x2.ccs.o (.bss)
                  20003db6    00000001     (.common:driverlib_release_0_55938)
                  20003db7    00000001     (.common:macMgmt)
                  20003db8    00000001     (.common:macPanCoordinator)
                  20003db9    00000001     (.common:macPhyChannel)
                  20003dba    00000001     (.common:macPwr)
                  20003dbb    00000001     (.common:macRxActive)
                  20003dbc    00000001     (.common:macRxEnableFlags)
                  20003dbd    00000001     (.common:macRxOutgoingAckFlag)
                  20003dbe    00000001     (.common:macSymbolTimerImpending)
                  20003dbf    00000001     (.common:macTaskId)
                  20003dc0    00000001     (.common:macTxActive)
                  20003dc1    00000001     (.common:macUnitBackoffPeriod)
                  20003dc2    00000001     (.common:rxFhRsl)

.vtable    0    20003dc3    00000000     UNINITIALIZED

.vtable_ram 
*          0    20003dc3    00000000     UNINITIALIZED

vtable_ram 
*          0    20003dc3    00000000     UNINITIALIZED

.sysmem    0    20003dc3    00000000     UNINITIALIZED

.nonretenvar 
*          0    20003dc3    00000000     UNINITIALIZED

.stack     0    20013aa0    00000560     UNINITIALIZED
                  20013aa0    00000560     --HOLE--

.bootVecs 
*          0    00000000    00000008     DSECT
                  00000000    00000008     boot.aem4f : boot.oem4f (.bootVecs)

.resetVecs 
*          0    00000000    0000003c     
                  00000000    0000003c     app_pem4f.oem4f (.resetVecs)

.vecs      0    20000000    000000d8     NOLOAD SECTION
                  20000000    000000d8     app_pem4f.oem4f (.vecs)

xdc.meta   0    00000000    00000105     COPY SECTION
                  00000000    00000105     app_pem4f.oem4f (xdc.meta)

xdc.noload 
*          0    00000000    00000000     COPY SECTION

.data:RAM_MAC_BASE_ADDR 
*          0    2000010c    00000010     UNINITIALIZED
                  2000010c    00000010     rom_init_154.obj (.data:RAM_MAC_BASE_ADDR)

.text.1    0    00001e38    00013b1c     
                  00001e38    000003f4     csf.obj (.text:Csf_init)
                  0000222c    000003d8     mac_user_config.obj (.text:rfSelect)
                  00002604    000003c0     maclib_secure_cc13x2.a : mac.obj (.text:macRxCb)
                  000029c4    00000376     api_mac.obj (.text:processIncomingICallMsg$26)
                  00002d3a    00000002     rf_multiMode_cc13x2.aem4f : rfc.c.cc13x2.ccs.o (.text:NOROM_RFCCpePatchReset)
                  00002d3c    00000354     maclib_secure_cc13x2.a : mac_rx.obj (.text:rxPayloadIsr$39)
                  00003090    0000034c                            : mac_radio_tx.obj (.text:macRadioTxGoSubG$38)
                  000033dc    000002d4                            : mac_radio_tx.obj (.text:macRadioCsmaTxCb)
                  000036b0    000002cc     nvocmp.obj (.text:NVOCMP_compact$24)
                  0000397c    000002c0     collector.obj (.text:processSensorData$3)
                  00003c3c    0000029c     nvocmp.obj (.text:NVOCMP_compactPage$24)
                  00003ed8    00000294     maclib_secure_cc13x2.a : mac_tx.obj (.text:macTxFrame)
                  0000416c    0000026c     nvocmp.obj (.text:NVOCMP_newItem$24)
                  000043d8    00000250     maclib_secure_cc13x2.a : mac_pwr.obj (.text:macPwrVote)
                  00004628    00000244     csf.obj (.text:Csf_processEvents)
                  0000486c    00000244     collector.obj (.text:dataIndCB$3)
                  00004ab0    00000234     cui.obj (.text:CUI_init)
                  00004ce4    00000228     maclib_secure_cc13x2.a : mac_tx.obj (.text:txCsmaPrep$43)
                  00004f0c    00000220                            : mac_radio.obj (.text:macRadioInitSubG)
                  0000512c    00000204     rf_multiMode_cc13x2.aem4f : RFCC26X2_multiMode.c.cc13x2.ccs.o (.text:RF_scheduleCmd)
                  00005330    00000200                               : RFCC26X2_multiMode.c.cc13x2.ccs.o (.text:RF_open)
                  00005530    000001e0     maclib_secure_cc13x2.a : mac_hl_patch.obj (.text:macWrapperAddKeyInitFCtr)
                  00005710    000001cc                            : mac.obj (.text:macSendReceiveCmdIeee)
                  000058dc    000001c4     drivers_cc13x2.aem4f : PINCC26XX.oem4f (.text:PIN_init)
                  00005aa0    000001c0     csf.obj (.text:setChMaskAction$4)
                  00005c60    000001b8     csf.obj (.text:setNwkKeyAction$4)
                  00005e18    000001ac     maclib_secure_cc13x2.a : mac_hl_patch.obj (.text:macRxBeaconCritical)
                  00005fc4    000001a8     drivers_cc13x2.aem4f : PowerCC26X2.oem4f (.text:Power_sleep)
                  0000616c    000001a4     maclib_secure_cc13x2.a : mac_hl_patch.obj (.text:macWrapperDeleteKeyAndAssociatedDevices)
                  00006310    0000019c                            : mac_hl_patch.obj (.text:macIncomingFrameSecurityMaterialRetrieval)
                  000064ac    00000198                            : mac_hl_patch.obj (.text:macWrapperDeleteDevice)
                  00006644    00000190     rf_multiMode_cc13x2.aem4f : RFCC26X2_multiMode.c.cc13x2.ccs.o (.text:RF_dispatchNextCmd)
                  000067d4    00000190     drivers_cc13x2.aem4f : PowerCC26X2_calibrateRCOSC.oem4f (.text:calibrateRcoscHf1)
                  00006964    0000018c                          : PowerCC26X2.oem4f (.text:Power_init)
                  00006af0    0000018c     maclib_secure_cc13x2.a : mac_hl_patch.obj (.text:macIncomingFrameSecurity)
                  00006c7c    0000018c     drivers_cc13x2.aem4f : PowerCC26X2_calibrateRCOSC.oem4f (.text:runCalibrateFsm)
                  00006e08    00000188     maclib_secure_cc13x2.a : mac_radio_tx.obj (.text:macRadioTxGoIeee$38)
                  00006f90    00000188                            : mac_tx.obj (.text:txCsmaDelay)
                  00007118    00000186     drivers_cc13x2.aem4f : Button.oem4f (.text:Button_clockTimeoutHandler)
                  0000729e    00000002     rf_multiMode_cc13x2.aem4f : RFCC26X2_multiMode.c.cc13x2.ccs.o (.text:RF_defaultCallback)
                  000072a0    00000180     maclib_secure_cc13x2.a : mac_radio_tx.obj (.text:macRadioTxAck$38)
                  00007420    00000178     csf.obj (.text:setPanIdAction$4)
                  00007598    0000016c     maclib_secure_cc13x2.a : mac_radio_tx.obj (.text:macRadioTxPrepCsmaUnslotted)
                  00007704    00000164     drivers_cc13x2.aem4f : UARTCC26XX.oem4f (.text:UARTCC26XX_open)
                  00007868    00000164     maclib_secure_cc13x2.a : mac_hl_patch.obj (.text:macWrapperDeleteAllDevices)
                  000079cc    00000158     cui.obj (.text:CUI_dispMenu$6)
                  00007b24    00000154     driverlib.lib : sys_ctrl.obj (.text:NOROM_SysCtrlStandby)
                  00007c78    00000154     drivers_cc13x2.aem4f : UARTCC26XX.oem4f (.text:UARTCC26XX_hwiIntFxn)
                  00007dcc    00000150     csf.obj (.text:Csf_deviceUpdate)
                  00007f1c    00000148     rf_multiMode_cc13x2.aem4f : RFCC26X2_multiMode.c.cc13x2.ccs.o (.text:RF_fsmSetupState)
                  00008064    00000148     maclib_secure_cc13x2.a : mac_radio_tx.obj (.text:macRadioLbtTxCb)
                  000081ac    00000144                            : mac.obj (.text:macSendReceiveCmdSubG)
                  000082f0    00000144     csf.obj (.text:updateCollectorStatusLine$4)
                  00008434    00000140     nvocmp.obj (.text:NVOCMP_migratePage$24)
                  00008574    00000140     csf.obj (.text:sensorSelectAction$4)
                  000086b4    0000013c     cui.obj (.text:CUI_statusLinePrintf)
                  000087f0    0000013c     rf_multiMode_cc13x2.aem4f : RFCC26X2_multiMode.c.cc13x2.ccs.o (.text:RF_ratSetupChannel)
                  0000892c    0000013a     drivers_cc13x2.aem4f : UARTCC26XX.oem4f (.text:UARTCC26XX_read)
                  00008a66    00000002     rtsv7M4_T_le_v4SPD16_eabi.lib : _lock.c.obj (.text:_nop)
                  00008a68    00000138     drivers_cc13x2.aem4f : NVSCC26XX.oem4f (.text:NVSCC26XX_write)
                  00008ba0    00000138     collector.obj (.text:generateTrackingRequests$3)
                  00008cd8    00000134     rf_multiMode_cc13x2.aem4f : RFCC26X2_multiMode.c.cc13x2.ccs.o (.text:RF_abortCmd)
                  00008e0c    00000130     drivers_cc13x2.aem4f : AESCCMCC26XX.oem4f (.text:AESCCM_startOperation)
                  00008f3c    00000130     rf_multiMode_cc13x2.aem4f : RFCC26X2_multiMode.c.cc13x2.ccs.o (.text:RF_initRadioSetup)
                  0000906c    00000130     maclib_secure_cc13x2.a : mac_radio.obj (.text:macRadioInitIeee)
                  0000919c    00000130     rtsv7M4_T_le_v4SPD16_eabi.lib : strtol.c.obj (.text:strtol)
                  000092cc    0000011c     rf_multiMode_cc13x2.aem4f : RFCC26X2_multiMode.c.cc13x2.ccs.o (.text:RF_radioOpDoneCb)
                  000093e8    00000118     maclib_secure_cc13x2.a : mac_low_level.obj (.text:macLowLevelBufferInit)
                  00009500    00000118                            : mac.obj (.text:macSetupRATChanCompare)
                  00009618    00000114                            : mac_hl_patch.obj (.text:macEdScanISR)
                  0000972c    00000114                            : mac_hl_patch.obj (.text:macScanNextChan)
                  00009840    00000112     rf_multiMode_cc13x2.aem4f : RFCC26X2_multiMode.c.cc13x2.ccs.o (.text:RF_decodeOverridePointers)
                  00009952    00000002     drivers_cc13x2.aem4f : PowerCC26X2.oem4f (.text:emptyClockFunc)
                  00009954    00000110     cui.obj (.text:CUI_menuActionHelp)
                  00009a64    00000110     drivers_cc13x2.aem4f : GPIOCC26XX.oem4f (.text:GPIO_setConfig)
                  00009b74    00000110                          : LED.oem4f (.text:LED_open)
                  00009c84    00000110     rf_multiMode_cc13x2.aem4f : RFCC26X2_multiMode.c.cc13x2.ccs.o (.text:RF_close)
                  00009d94    00000110     collector.obj (.text:dataCnfCB$3)
                  00009ea4    00000110     csf.obj (.text:sensorSetReportInterval$4)
                  00009fb4    00000106     app_pem4f.oem4f (.text:xdc_runtime_System_printfExtend__I)
                  0000a0ba    00000002     drivers_cc13x2.aem4f : CryptoResourceCC26XX.oem4f (.text:errorSpin)
                  0000a0bc    00000104     nvocmp.obj (.text:NVOCMP_findItem$24)
                  0000a1c0    00000100     drivers_cc13x2.aem4f : PowerCC26X2.oem4f (.text:configureXOSCHF)
                  0000a2c0    000000fc     cui.obj (.text:CUI_statusLineResourceRequest)
                  0000a3bc    000000fc     rf_multiMode_cc13x2.aem4f : RFCC26X2_multiMode.c.cc13x2.ccs.o (.text:RF_hwiCpe0Active)
                  0000a4b8    000000fc     maclib_secure_cc13x2.a : mac_hl_patch.obj (.text:macOutgoingFrameKeyDescRetrieval)
                  0000a5b4    000000f8     drivers_cc13x2.aem4f : PINCC26XX.oem4f (.text:PINCC26XX_setIoCfg)
                  0000a6ac    000000f8     maclib_secure_cc13x2.a : mac_tx.obj (.text:macTxChannelBusyCallback)
                  0000a7a4    000000f0     rf_multiMode_cc13x2.aem4f : RFCC26X2_multiMode.c.cc13x2.ccs.o (.text:RF_fsmPowerUpState)
                  0000a894    000000f0     maclib_secure_cc13x2.a : mac_hl_patch.obj (.text:macScanRxCoordRealign)
                  0000a984    000000ec     nvocmp.obj (.text:NVOCMP_cleanPage$24)
                  0000aa70    000000ec     maclib_secure_cc13x2.a : mac_radio.obj (.text:macRadioPowerUp)
                  0000ab5c    000000e8     drivers_cc13x2.aem4f : Button.oem4f (.text:Button_open)
                  0000ac44    000000e8     maclib_secure_cc13x2.a : mac.obj (.text:macSetupReceiveCmd)
                  0000ad2c    000000e4                            : mac_hl_patch.obj (.text:macOutgoingFrameSecurity)
                  0000ae10    000000e4                            : mac_rx.obj (.text:rxPostRxUpdates$39)
                  0000aef4    000000e0     drivers_cc13x2.aem4f : UARTCC26XX.oem4f (.text:UARTCC26XX_write)
                  0000afd4    000000dc     collector.obj (.text:Collector_sendConfigRequest)
                  0000b0b0    000000dc     maclib_secure_cc13x2.a : mac.obj (.text:macSendFsCmd)
                  0000b18c    000000d8     driverlib.lib : setup.obj (.text:TrimAfterColdResetWakeupFromShutDown$48)
                  0000b264    000000d8     maclib_secure_cc13x2.a : mac_hl_patch.obj (.text:macCcmStarTransform)
                  0000b33c    000000d4     rf_multiMode_cc13x2.aem4f : RFCC26X2_multiMode.c.cc13x2.ccs.o (.text:RF_pendCmd)
                  0000b410    000000d2                               : RFCC26X2_multiMode.c.cc13x2.ccs.o (.text:RF_updatePaConfiguration)
                  0000b4e2    00000002     maclib_secure_cc13x2.a : mac_pwr.obj (.text:macApiPwrOnReq)
                  0000b4e4    000000d0     rf_multiMode_cc13x2.aem4f : RFCC26X2_multiMode.c.cc13x2.ccs.o (.text:RF_swiHw)
                  0000b5b4    000000cc                               : RFCC26X2_multiMode.c.cc13x2.ccs.o (.text:RF_control)
                  0000b680    000000cc     maclib_secure_cc13x2.a : mac_timer.obj (.text:macSymbolTimerTriggerCallback)
                  0000b74c    000000c8     cui.obj (.text:CUI_handleMenuIntercept$6)
                  0000b814    000000c8     drivers_cc13x2.aem4f : PowerCC26X2.oem4f (.text:Power_releaseDependency)
                  0000b8dc    000000c4                          : GPIOCC26XX.oem4f (.text:GPIO_init)
                  0000b9a0    000000c4                          : PowerCC26X2.oem4f (.text:Power_setDependency)
                  0000ba64    000000c4     maclib_secure_cc13x2.a : mac_hl_patch.obj (.text:macApiStartReq)
                  0000bb28    000000c0     nvocmp.obj (.text:NVOCMP_erase$24)
                  0000bbe8    000000c0     drivers_cc13x2.aem4f : UARTCC26XX.oem4f (.text:UARTCC26XX_initIO)
                  0000bca8    000000bc     maclib_secure_cc13x2.a : mac_hl_patch.obj (.text:macAutoPoll)
                  0000bd64    000000b8     drivers_cc13x2.aem4f : UARTCC26XX.oem4f (.text:UARTCC26XX_initHw)
                  0000be1c    000000b4     maclib_secure_cc13x2.a : mac_pwr.obj (.text:MAC_PwrOffReq)
                  0000bed0    000000b4     dpl_cc13x2.aem4f : PowerCC26X2_tirtos.oem4f (.text:PowerCC26XX_standbyPolicy)
                  0000bf84    000000b4     drivers_cc13x2.aem4f : TRNGCC26XX.oem4f (.text:TRNG_generateEntropy)
                  0000c038    000000b4     maclib_secure_cc13x2.a : mac_tx.obj (.text:txComplete)
                  0000c0ec    000000b0                            : mac_autopend.obj (.text:MAC_SrcMatchAddEntry)
                  0000c19c    000000b0     cllc.obj (.text:assocIndCb$5)
                  0000c24c    000000ac     drivers_cc13x2.aem4f : PINCC26XX.oem4f (.text:PIN_open)
                  0000c2f8    000000ac     maclib_secure_cc13x2.a : mac_hl_patch.obj (.text:macApiBeaconStartReq)
                  0000c3a4    000000ac     macTask.obj (.text:macTaskInit)
                  0000c450    000000ac     api_mac.obj (.text:processBeaconNotifyInd$26)
                  0000c4fc    000000a8     driverlib.lib : setup.obj (.text:NOROM_SetupTrimDevice)
                  0000c5a4    000000a8     maclib_secure_cc13x2.a : mac_radio_tx.obj (.text:macRadioTxAckCb$38)
                  0000c64c    000000a8                            : mac_symbol_timer.obj (.text:macSymbolTimerInit)
                  0000c6f4    000000a4     rf_multiMode_cc13x2.aem4f : RFCC26X2_multiMode.c.cc13x2.ccs.o (.text:RF_ratRestartChannels)
                  0000c798    000000a4                               : RFCC26X2_multiMode.c.cc13x2.ccs.o (.text:RF_requestAccess)
                  0000c83c    000000a4     maclib_secure_cc13x2.a : mac_hl_patch.obj (.text:macCcmStarInverseTransform)
                  0000c8e0    000000a4                            : mac_radio.obj (.text:macRadioUpdateTxPower)
                  0000c984    000000a0     csf.obj (.text:Csf_getDevice)
                  0000ca24    000000a0     auto_init.aem4f : auto_init.oem4f (.text)
                  0000cac4    000000a0     maclib_secure_cc13x2.a : mac_hl_patch.obj (.text:macBlacklistChecking)
                  0000cb64    000000a0                            : mac_radio_tx.obj (.text:macRadioTxPrepLbt)
                  0000cc04    000000a0     rom_sysbios.aem4f : rom_sysbios.obj (.text:ti_sysbios_knl_Task_setPri__E)
                  0000cca4    0000009c     cllc.obj (.text:Cllc_init)
                  0000cd40    0000009c     nvocmp.obj (.text:NVOCMP_readHeader$24)
                  0000cddc    0000009c     rf_multiMode_cc13x2.aem4f : RFCC26X2_multiMode.c.cc13x2.ccs.o (.text:RF_calculateDispatchTime)
                  0000ce78    0000009c     csf.obj (.text:findBlackListIndex$4)
                  0000cf14    0000009c     maclib_secure_cc13x2.a : mac.obj (.text:macGetRFCmdDuration)
                  0000cfb0    0000009c                            : mac_radio.obj (.text:macRadioStartScan)
                  0000d04c    0000009c                            : mac_radio_tx.obj (.text:macRadioTxEnhAckCb)
                  0000d0e8    0000009c                            : mac_timer.obj (.text:macTimerRealign)
                  0000d184    0000009c     rtsv7M4_T_le_v4SPD16_eabi.lib : memcpy_t2.asm.obj (.text)
                  0000d220    00000098     drivers_cc13x2.aem4f : UARTCC26XX.oem4f (.text:writeTxFifoFlush)
                  0000d2b8    00000096     rtsv7M4_T_le_v4SPD16_eabi.lib : ull_div_t2.asm.obj (.text)
                  0000d34e    00000002     maclib_secure_cc13x2.a : mac_radio.obj (.text:macRadioSetRE)
                  0000d350    00000094     csf.obj (.text:Csf_updateFrameCounter)
                  0000d3e4    00000094     rf_multiMode_cc13x2.aem4f : RFCC26X2_multiMode.c.cc13x2.ccs.o (.text:RF_getInfo)
                  0000d478    00000094     drivers_cc13x2.aem4f : TRNGCC26XX.oem4f (.text:TRNGCC26XX_hwiFxn)
                  0000d50c    00000094     maclib_secure_cc13x2.a : mac_hl_patch.obj (.text:macIncomingSecurityLevelChecking)
                  0000d5a0    00000094                            : mac_radio.obj (.text:macRadioUpdateChannel)
                  0000d634    00000094                            : mac_radio.obj (.text:macRadioUpdateChannelRx)
                  0000d6c8    00000094                            : mac.obj (.text:macRatCb_A)
                  0000d75c    00000094     collector.obj (.text:sendMsg$3)
                  0000d7f0    00000092     drivers_cc13x2.aem4f : UARTCC26XX.oem4f (.text:UARTCC26XX_writeCancel)
                  0000d882    00000002     rtsv7M4_T_le_v4SPD16_eabi.lib : div0.asm.obj (.text)
                  0000d884    00000090     CC1352R1_LAUNCHXL_fxns.obj (.text:CC1352R1_LAUNCHXL_shutDownExtFlash)
                  0000d914    00000090     rf_multiMode_cc13x2.aem4f : RFCC26X2_multiMode.c.cc13x2.ccs.o (.text:RF_discardPendCmd)
                  0000d9a4    00000090     maclib_secure_cc13x2.a : mac_hl_patch.obj (.text:macCcmDecrypt)
                  0000da34    0000008c     osal_port.obj (.text:OsalPort_heapMalloc$20)
                  0000dac0    0000008c     osal_port.obj (.text:OsalPort_setTimer)
                  0000db4c    0000008c     api_mac.obj (.text:copyDataInd$26)
                  0000dbd8    0000008c     maclib_secure_cc13x2.a : mac_hl_patch.obj (.text:macCcmEncrypt)
                  0000dc64    0000008c     rom_sysbios.aem4f : rom_sysbios.obj (.text:ti_sysbios_gates_GateMutexPri_enter__E)
                  0000dcf0    00000088     maclib_secure_cc13x2.a : mac_autopend.obj (.text:MAC_SrcMatchEnable)
                  0000dd78    00000088     driverlib.lib : osc.obj (.text:NOROM_OSCHF_AttemptToSwitchToXosc)
                  0000de00    00000088     rf_multiMode_cc13x2.aem4f : RFCC26X2_multiMode.c.cc13x2.ccs.o (.text:RF_cmdDispatchTime)
                  0000de88    00000088                               : RFCC26X2_multiMode.c.cc13x2.ccs.o (.text:RF_getTxPower)
                  0000df10    00000088     drivers_cc13x2.aem4f : PowerCC26X2_calibrateRCOSC.oem4f (.text:calibrateRcoscHf2)
                  0000df98    00000088                          : PowerCC26X2.oem4f (.text:disableLFClockQualifiers)
                  0000e020    00000088     maclib_secure_cc13x2.a : mac_hl_patch.obj (.text:macKeyDescriptorLookup)
                  0000e0a8    00000088                            : mac_mcu.obj (.text:macMcuBitReverse)
                  0000e130    00000088     drivers_cc13x2.aem4f : PowerCC26X2_calibrateRCOSC.oem4f (.text:updateSubSecInc)
                  0000e1b8    00000084     cui.obj (.text:CUI_writeString$6)
                  0000e23c    00000084     cllc.obj (.text:Cllc_removeDevice)
                  0000e2c0    00000084     rf_multiMode_cc13x2.aem4f : RFCC26X2_multiMode.c.cc13x2.ccs.o (.text:RF_issueRadioFreeCb)
                  0000e344    00000084                               : RFCC26X2_multiMode.c.cc13x2.ccs.o (.text:RF_verifyGap)
                  0000e3c8    00000084     drivers_cc13x2.aem4f : UARTCC26XX.oem4f (.text:UARTCC26XX_close)
                  0000e44c    00000084     maclib_secure_cc13x2.a : mac_rx_onoff.obj (.text:macRxOffRequest)
                  0000e4d0    00000084                            : mac_timer.obj (.text:macTimerUpdateSymbolTimer)
                  0000e554    00000080     api_mac.obj (.text:ApiMac_init)
                  0000e5d4    00000080     drivers_cc13x2.aem4f : NVSCC26XX.oem4f (.text:NVSCC26XX_open)
                  0000e654    00000080     cllc.obj (.text:beaconNotifyIndCb$5)
                  0000e6d4    00000080     maclib_secure_cc13x2.a : mac_mcu.obj (.text:macMcuOverflowSetPeriod)
                  0000e754    00000080                            : mac_radio.obj (.text:macRadioWakeupCb)
                  0000e7d4    00000080                            : mac_autopend.obj (.text:macSrcMatchCheckSrcAddr$34)
                  0000e854    00000080     rom_sysbios.aem4f : rom_sysbios.obj (.text:ti_sysbios_family_arm_cc26xx_Timer_start__E)
                  0000e8d4    00000080     maclib_secure_cc13x2.a : mac_tx.obj (.text:txGo$43)
                  0000e954    0000007c     csf.obj (.text:Csf_getDeviceItem)
                  0000e9d0    0000007c     rf_multiMode_cc13x2.aem4f : RFCC26X2_multiMode.c.cc13x2.ccs.o (.text:RF_ratFreeChannel)
                  0000ea4c    0000007c     csf.obj (.text:findDeviceListIndex$4)
                  0000eac8    0000007c     maclib_secure_cc13x2.a : mac_mcu.obj (.text:macMcuOverflowSetCompare)
                  0000eb44    0000007c                            : mac_rx_onoff.obj (.text:macRxOn)
                  0000ebc0    0000007c     osal_port.obj (.text:osalHeapInitFxn)
                  0000ec3c    0000007a     rtsv7M4_T_le_v4SPD16_eabi.lib : memset_t2.asm.obj (.text)
                  0000ecb6    00000002     app_pem4f.oem4f (.text:ti_sysbios_BIOS_nullFunc__I)
                  0000ecb8    00000078     cllc.obj (.text:Cllc_securityInit)
                  0000ed30    00000078     nvocmp.obj (.text:NVOCMP_checkItem$24)
                  0000eda8    00000078     nvocmp.obj (.text:NVOCMP_deleteItemApi$24)
                  0000ee20    00000078     nvocmp.obj (.text:NVOCMP_readItemApi$24)
                  0000ee98    00000074     csf.obj (.text:Csf_removeDevice)
                  0000ef0c    00000074     nvocmp.obj (.text:NVOCMP_writeItemApi$24)
                  0000ef80    00000074     drivers_cc13x2.aem4f : PowerCC26X2_calibrateRCOSC.oem4f (.text:PowerCC26X2_auxISR)
                  0000eff4    00000074     rf_multiMode_cc13x2.aem4f : RFCC26X2_multiMode.c.cc13x2.ccs.o (.text:RF_yield)
                  0000f068    00000074     drivers_cc13x2.aem4f : TRNGCC26XX.oem4f (.text:TRNG_construct)
                  0000f0dc    00000074     cllc.obj (.text:scanCnfCb$5)
                  0000f150    00000074     rom_sysbios.aem4f : rom_sysbios.obj (.text:ti_sysbios_gates_GateMutexPri_leave__E)
                  0000f1c4    00000072     rf_multiMode_cc13x2.aem4f : RFCC26X2_multiMode.c.cc13x2.ccs.o (.text:RF_detachOverrides)
                  0000f236    00000002     rom_sysbios.aem4f : rom_sysbios.obj (.text:ti_sysbios_heaps_HeapCallback_defaultDelete)
                  0000f238    00000070     drivers_cc13x2.aem4f : AESCCMCC26XX.oem4f (.text:AESCCM_cleanup)
                  0000f2a8    00000070     rf_multiMode_cc13x2.aem4f : rfc.c.cc13x2.ccs.o (.text:NOROM_RFCAnaDivTxOverride)
                  0000f318    00000070     nvocmp.obj (.text:NVOCMP_createItemApi$24)
                  0000f388    00000070     drivers_cc13x2.aem4f : PINCC26XX.oem4f (.text:PIN_add)
                  0000f3f8    00000070     rf_multiMode_cc13x2.aem4f : RFCC26X2_multiMode.c.cc13x2.ccs.o (.text:RF_hwiHw)
                  0000f468    00000070     drivers_cc13x2.aem4f : Random.oem4f (.text:Random_seedAutomatic)
                  0000f4d8    00000070     cllc.obj (.text:sendStartReq$5)
                  0000f548    0000006e     rf_multiMode_cc13x2.aem4f : RFCC26X2_multiMode.c.cc13x2.ccs.o (.text:RF_attachOverrides)
                  0000f5b6    0000006e                               : RFCC26X2_multiMode.c.cc13x2.ccs.o (.text:RF_howToSchedule)
                  0000f624    0000006e     rtsv7M4_T_le_v4SPD16_eabi.lib : ll_div_t2.asm.obj (.text)
                  0000f692    00000002     rom_sysbios.aem4f : rom_sysbios.obj (.text:xdc_runtime_SysCallback_defaultAbort)
                  0000f694    0000006d                       : rom_sysbios.obj (.text:xdc_runtime_System_formatNum__I)
                  0000f701    00000001     --HOLE-- [fill = 0]
                  0000f702    00000002                       : rom_sysbios.obj (.text:xdc_runtime_SysCallback_defaultExit)
                  0000f704    0000006c     cllc.obj (.text:Cllc_restoreNetwork)
                  0000f770    0000006c     rf_multiMode_cc13x2.aem4f : RFCC26X2_multiMode.c.cc13x2.ccs.o (.text:RF_ratDisableChannel)
                  0000f7dc    0000006c     maclib_secure_cc13x2.a : mac_hl_patch.obj (.text:macTrackPeriodCallback)
                  0000f848    0000006c                            : mac_tx.obj (.text:macTxDoneCallback)
                  0000f8b4    00000068     nvocmp.obj (.text:NVOCMP_findSignature$24)
                  0000f91c    00000068     osal_port.obj (.text:OsalPort_registerTask)
                  0000f984    00000068     rf_multiMode_cc13x2.aem4f : RFCC26X2_multiMode.c.cc13x2.ccs.o (.text:RF_getCurrentTime)
                  0000f9ec    00000068     rtsv7M4_T_le_v4SPD16_eabi.lib : copy_decompress_lzss.c.obj (.text:decompress:lzss:__TI_decompress_lzss)
                  0000fa54    00000068     maclib_secure_cc13x2.a : mac_radio_tx.obj (.text:macRadioTxBackoffBoundary)
                  0000fabc    00000068                            : mac_rx.obj (.text:macRxHaltCleanup)
                  0000fb24    00000068                            : mac.obj (.text:macSetupFsCmd)
                  0000fb8c    00000068     cllc.obj (.text:orphanIndCb$5)
                  0000fbf4    00000064     drivers_cc13x2.aem4f : AESCCMCC26XX.oem4f (.text:AESCCM_waitForResult)
                  0000fc58    00000064                          : Button.oem4f (.text:Button_gpioCallbackFxn)
                  0000fcbc    00000064     driverlib.lib : osc.obj (.text:NOROM_OSCHF_SwitchToRcOscTurnOffXosc)
                  0000fd20    00000064                   : osc.obj (.text:NOROM_OSC_HPOSCRtcCompensate)
                  0000fd84    00000064     nvocmp.obj (.text:NVOCMP_copyItem$24)
                  0000fde8    00000064     osal_port.obj (.text:OsalPort_clearEvent)
                  0000fe4c    00000064     osal_port.obj (.text:OsalPort_pwrmgrTaskState)
                  0000feb0    00000064     rf_multiMode_cc13x2.aem4f : RFCC26X2_multiMode.c.cc13x2.ccs.o (.text:RF_dispatchNextEvent)
                  0000ff14    00000064     drivers_cc13x2.aem4f : UARTCC26XX.oem4f (.text:UARTCC26XX_control)
                  0000ff78    00000064     collector.obj (.text:cllcStartedCB$3)
                  0000ffdc    00000064     csf.obj (.text:getTheFirstDevice$4)
                  00010040    00000064     maclib_secure_cc13x2.a : mac.obj (.text:macFsCb$33)
                  000100a4    00000064                            : mac_timer.obj (.text:macSymbolTimerRolloverCallback)
                  00010108    00000064                            : mac_timer.obj (.text:macTimerAddTimer)
                  0001016c    00000064     main.obj (.text:main)
                  000101d0    00000062     drivers_cc13x2.aem4f : UARTCC26XX.oem4f (.text:UARTCC26XX_swiIntFxn)
                  00010232    00000002     rom_sysbios.aem4f : rom_sysbios.obj (.text:xdc_runtime_SysCallback_defaultFlush)
                  00010234    00000060     drivers_cc13x2.aem4f : AESCCMCC26XX.oem4f (.text:AESCCM_hwiFxn)
                  00010294    00000060                          : CryptoResourceCC26XX.oem4f (.text:CryptoResourceCC26XX_constructRTOSObjects)
                  000102f4    00000060                          : GPIOCC26XX.oem4f (.text:GPIO_write)
                  00010354    00000060     rf_multiMode_cc13x2.aem4f : RFCC26X2_multiMode.c.cc13x2.ccs.o (.text:RF_applyRfCorePatch)
                  000103b4    00000060     drivers_cc13x2.aem4f : TRNGCC26XX.oem4f (.text:TRNGCC26XX_startTrng)
                  00010414    00000060     csf.obj (.text:findUnusedDeviceListIndex$4)
                  00010474    00000060     maclib_secure_cc13x2.a : mac_radio.obj (.text:macGetRadioTxPowerReg)
                  000104d4    00000060                            : mac_timer.obj (.text:macTimerCancel)
                  00010534    00000060                            : mac_timer.obj (.text:macTimerGetNextTimer)
                  00010594    00000060     collector.obj (.text:orphanIndCb$3)
                  000105f4    00000060     collector.obj (.text:processDataRetry$3)
                  00010654    00000060     collector.obj (.text:processIdendifyLedRequest$3)
                  000106b4    00000060     cllc.obj (.text:sendScanReq$5)
                  00010714    0000005e     api_mac.obj (.text:convertTxOptions)
                  00010772    00000002     rom_sysbios.aem4f : rom_sysbios.obj (.text:xdc_runtime_SysCallback_defaultPutch)
                  00010774    0000005c     osal_port.obj (.text:OsalPort_msgReceive)
                  000107d0    0000005c     osal_port.obj (.text:OsalPort_setEvent)
                  0001082c    0000005c     drivers_cc13x2.aem4f : PINCC26XX.oem4f (.text:PIN_remove)
                  00010888    0000005c     rf_multiMode_cc13x2.aem4f : RFCC26X2_multiMode.c.cc13x2.ccs.o (.text:RF_syncCb)
                  000108e4    0000005c     drivers_cc13x2.aem4f : NVSCC26XX.oem4f (.text:doErase)
                  00010940    0000005c     maclib_secure_cc13x2.a : mac_hl_patch.obj (.text:macSetDefaultsByPatch)
                  0001099c    0000005c     collector.obj (.text:sendBroadcastMsg$3)
                  000109f8    0000005c     app_pem4f.oem4f (.text:xdc_runtime_Startup_getState__I)
                  00010a54    00000058     nvocmp.obj (.text:NVOCMP_getItemLenApi$24)
                  00010aac    00000058     nvocmp.obj (.text:NVOCMP_readItem$24)
                  00010b04    00000058     drivers_cc13x2.aem4f : PowerCC26X2_calibrateRCOSC.oem4f (.text:PowerCC26X2_initiateCalibration)
                  00010b5c    00000058     rf_multiMode_cc13x2.aem4f : RFCC26X2_multiMode.c.cc13x2.ccs.o (.text:RF_TxPowerTable_findValue)
                  00010bb4    00000058                               : RFCC26X2_multiMode.c.cc13x2.ccs.o (.text:RF_fsmXOSCState)
                  00010c0c    00000058                               : RFCC26X2_multiMode.c.cc13x2.ccs.o (.text:RF_hwiCpe0PowerFsm)
                  00010c64    00000058     drivers_cc13x2.aem4f : TRNGCC26XX.oem4f (.text:TRNG_init)
                  00010cbc    00000058     boot.aem4f : boot.oem4f (.text)
                  00010d14    00000058     maclib_secure_cc13x2.a : mac_radio.obj (.text:macRadioSetChannelRx)
                  00010d6c    00000056     rf_multiMode_cc13x2.aem4f : RFCC26X2_multiMode.c.cc13x2.ccs.o (.text:RF_defaultSubmitPolicy)
                  00010dc2    00000002     --HOLE-- [fill = 0]
                  00010dc4    00000054     drivers_cc13x2.aem4f : AESCCMCC26XX.oem4f (.text:AESCCM_construct)
                  00010e18    00000054     cllc.obj (.text:Cllc_addSecDevice)
                  00010e6c    00000054     driverlib.lib : chipinfo.obj (.text:NOROM_ChipInfo_GetChipType)
                  00010ec0    00000054     nvocmp.obj (.text:NVOCMP_doNVCRC$24)
                  00010f14    00000054     drivers_cc13x2.aem4f : NVSCC26XX.oem4f (.text:NVSCC26XX_init)
                  00010f68    00000054                          : StructRingBuf.oem4f (.text:StructRingBuf_put)
                  00010fbc    00000054     maclib_secure_cc13x2.a : mac_hl_patch.obj (.text:macIncomingKeyUsagePolicyChecking)
                  00011010    00000054                            : mac_radio.obj (.text:macRadioSetChannel)
                  00011064    00000054                            : mac.obj (.text:macStopCmd)
                  000110b8    00000054                            : mac_tx.obj (.text:macTxAckReceivedCallback)
                  0001110c    00000054     api_mac.obj (.text:processScanCnf$26)
                  00011160    00000054     csf.obj (.text:sendToggleAndUpdateUser$4)
                  000111b4    00000054     collector.obj (.text:sendTrackingRequest$3)
                  00011208    00000050     dpl_cc13x2.aem4f : ClockP_tirtos.oem4f (.text:ClockP_construct)
                  00011258    00000050                      : ClockP_tirtos.oem4f (.text:ClockP_create)
                  000112a8    00000050     csf.obj (.text:Csf_deviceDisassocUpdate)
                  000112f8    00000050     drivers_cc13x2.aem4f : GPIOCC26XX.oem4f (.text:GPIO_enableInt)
                  00011348    00000050                          : LED.oem4f (.text:LED_startBlinking)
                  00011398    00000050     nvocmp.obj (.text:NVOCMP_findOffset$24)
                  000113e8    00000050     rf_multiMode_cc13x2.aem4f : RFCC26X2_multiMode.c.cc13x2.ccs.o (.text:RF_wakeupNotification)
                  00011438    00000050     drivers_cc13x2.aem4f : TRNGCC26XX.oem4f (.text:TRNGCC26XX_waitForResult)
                  00011488    00000050     maclib_secure_cc13x2.a : mac_sleep.obj (.text:macCanSleep)
                  000114d8    00000050                            : mac_radio.obj (.text:macRadioSetPanCoordinator)
                  00011528    00000050                            : mac_rx_onoff.obj (.text:macRxDisable)
                  00011578    00000050                            : mac_timer.obj (.text:macTimerStart)
                  000115c8    00000050     cllc.obj (.text:maintainAssocTable$5)
                  00011618    0000004c     nvocmp.obj (.text:NVOCMP_setItemInactive$24)
                  00011664    0000004c     osal_port.obj (.text:OsalPort_msgSend)
                  000116b0    0000004c     drivers_cc13x2.aem4f : StructRingBuf.oem4f (.text:StructRingBuf_get)
                  000116fc    0000004c                          : UARTCC26XX.oem4f (.text:UARTCC26XX_readCancel)
                  00011748    0000004c     rtsv7M4_T_le_v4SPD16_eabi.lib : atoi.c.obj (.text:atoi)
                  00011794    0000004c                                   : cpy_tbl.c.obj (.text:copy_in)
                  000117e0    0000004c     maclib_secure_cc13x2.a : mac_radio_tx.obj (.text:macRadioTxHandleAck)
                  0001182c    0000004c     osal_port.obj (.text:osalHeapGetStatsFxn)
                  00011878    0000004c     drivers_cc13x2.aem4f : UARTCC26XX.oem4f (.text:startTxFifoEmptyClk)
                  000118c4    0000004c                          : PowerCC26X2.oem4f (.text:switchXOSCHF)
                  00011910    0000004a     csf.obj (.text:uintToString$4)
                  0001195a    00000002     --HOLE-- [fill = 0]
                  0001195c    00000048     CC1352R1_LAUNCHXL_fxns.obj (.text:CC1352R1_LAUNCHXL_wakeUpExtFlash)
                  000119a4    00000048     cui.obj (.text:CUI_updateCursor$6)
                  000119ec    00000048     csf.obj (.text:Csf_getNumDeviceListEntries)
                  00011a34    00000048     rf_multiMode_cc13x2.aem4f : rfc.c.cc13x2.ccs.o (.text:NOROM_RFCSynthPowerDown)
                  00011a7c    00000048     nvocmp.obj (.text:NVOCMP_write$24)
                  00011ac4    00000048     drivers_cc13x2.aem4f : NVS.oem4f (.text:NVS_open)
                  00011b0c    00000048                          : PINCC26XX.oem4f (.text:PIN_setOutputEnable)
                  00011b54    00000048                          : PowerCC26X2_calibrateRCOSC.oem4f (.text:PowerCC26X2_RCOSC_clockFunc)
                  00011b9c    00000048                          : PowerCC26X2.oem4f (.text:PowerCC26XX_switchXOSC_HF)
                  00011be4    00000048     util_timer.obj (.text:Timer_construct)
                  00011c2c    00000048     cui.obj (.text:UartReadCallback$6)
                  00011c74    00000048     drivers_cc13x2.aem4f : NVSCC26XX.oem4f (.text:disableFlashCache)
                  00011cbc    00000048     csf.obj (.text:formNwkAndUpdateUser$4)
                  00011d04    00000048     csf.obj (.text:getNumBlackListEntries$4)
                  00011d4c    00000048     cui.obj (.text:handleButtonCallback$6)
                  00011d94    00000048     maclib_secure_cc13x2.a : mac_radio.obj (.text:macRadioNeedAdjustPower)
                  00011ddc    00000048                            : mac_radio.obj (.text:macRadioStopScan)
                  00011e24    00000048                            : mac_timer.obj (.text:macTimerUpdActive)
                  00011e6c    00000048     drivers_cc13x2.aem4f : UARTCC26XX.oem4f (.text:writeFinishedDoCallback)
                  00011eb4    00000046                          : RingBuf.oem4f (.text:RingBuf_put)
                  00011efa    00000046     maclib_secure_cc13x2.a : mac_hl_patch.obj (.text:macDeviceDescriptorLookup)
                  00011f40    00000044     cllc.obj (.text:Cllc_sendDisassociationRequest)
                  00011f84    00000044     drivers_cc13x2.aem4f : GPIOCC26XX.oem4f (.text:GPIO_disableInt)
                  00011fc8    00000044     maclib_secure_cc13x2.a : mac_timer.obj (.text:MAC_PwrNextTimeout)
                  0001200c    00000044     driverlib.lib : chipinfo.obj (.text:NOROM_ChipInfo_GetHwRevision)
                  00012050    00000044     drivers_cc13x2.aem4f : NVSCC26XX.oem4f (.text:NVSCC26XX_read)
                  00012094    00000044                          : PINCC26XX.oem4f (.text:PIN_swi)
                  000120d8    00000044                          : PWM.oem4f (.text:PWM_init)
                  0001211c    00000044                          : UART.oem4f (.text:UART_init)
                  00012160    00000044     maclib_secure_cc13x2.a : mac.obj (.text:macRatCb_B)
                  000121a4    00000044                            : mac_tx.obj (.text:macTxTimestampCallback)
                  000121e8    00000044     csf.obj (.text:processidentifyTimeoutCallback$4)
                  0001222c    00000042     api_mac.obj (.text:copyMacPanDescToApiMacPanDesc$26)
                  0001226e    00000002     --HOLE-- [fill = 0]
                  00012270    00000040     csf.obj (.text:Csf_getNetworkInformation)
                  000122b0    00000040     nvocmp.obj (.text:NVOCMP_compactNvApi$24)
                  000122f0    00000040     drivers_cc13x2.aem4f : PWM.oem4f (.text:PWM_open)
                  00012330    00000040                          : PowerCC26X2.oem4f (.text:PowerCC26XX_isStableXOSC_HF)
                  00012370    00000040                          : Random.oem4f (.text:Random_getNumber)
                  000123b0    00000040                          : RingBuf.oem4f (.text:RingBuf_get)
                  000123f0    00000040                          : TRNGCC26XX.oem4f (.text:TRNGCC26XX_copyToClient)
                  00012430    00000040                          : UART.oem4f (.text:UART_open)
                  00012470    00000040     csf.obj (.text:getNumActiveDevices$4)
                  000124b0    00000040     maclib_secure_cc13x2.a : mac_low_level.obj (.text:macLowLevelYield)
                  000124f0    00000040                            : mac_rx.obj (.text:macRxNokIsr)
                  00012530    00000040                            : mac_autopend.obj (.text:macSrcMatchSetEnableBit$34)
                  00012570    00000040                            : mac_symbol_timer.obj (.text:macSymbolTimerSetTrigger)
                  000125b0    00000040                            : mac_tx.obj (.text:macTxUpdateIE)
                  000125f0    00000040     rtsv7M4_T_le_v4SPD16_eabi.lib : u_divt2.asm.obj (.text)
                  00012630    00000040     rom_sysbios.aem4f : rom_sysbios.obj (.text:ti_sysbios_family_arm_cc26xx_Timer_setThreshold__I)
                  00012670    00000040                       : rom_sysbios.obj (.text:ti_sysbios_heaps_HeapCallback_Module_startup__E)
                  000126b0    0000003e     dpl_cc13x2.aem4f : HwiP_tirtos.oem4f (.text:HwiP_construct)
                  000126ee    0000003e     drivers_cc13x2.aem4f : LED.oem4f (.text:LED_setBrightnessLevel)
                  0001272c    0000003e     osal_port.obj (.text:OsalPort_msgEnqueueMax)
                  0001276a    00000002     --HOLE-- [fill = 0]
                  0001276c    0000003c     cui.obj (.text:CUI_ledOn)
                  000127a8    0000003c     drivers_cc13x2.aem4f : LED.oem4f (.text:LED_setOff)
                  000127e4    0000003c     maclib_secure_cc13x2.a : mac_pwr.obj (.text:MAC_PwrOnReq)
                  00012820    0000003c     drivers_cc13x2.aem4f : PINCC26XX.oem4f (.text:PIN_setInterrupt)
                  0001285c    0000003c                          : PINCC26XX.oem4f (.text:PIN_setOutputValue)
                  00012898    0000003c     rf_multiMode_cc13x2.aem4f : RFCC26X2_multiMode.c.cc13x2.ccs.o (.text:RF_cmdGet)
                  000128d4    0000003c                               : RFCC26X2_multiMode.c.cc13x2.ccs.o (.text:RF_cmdStoreEvents)
                  00012910    0000003c     dpl_cc13x2.aem4f : SwiP_tirtos.oem4f (.text:SwiP_construct)
                  0001294c    0000003c     drivers_cc13x2.aem4f : NVSCC26XX.oem4f (.text:checkEraseRange)
                  00012988    0000003c     collector.obj (.text:cllcDeviceJoiningCB$3)
                  000129c4    0000003c     maclib_secure_cc13x2.a : mac_timer.obj (.text:macTimerRecalcUnaligned)
                  00012a00    0000003c                            : mac_tx.obj (.text:macTxDecrypt)
                  00012a3c    0000003c     rom_sysbios.aem4f : rom_sysbios.obj (.text:ti_sysbios_family_arm_m3_Hwi_construct2__E)
                  00012a78    00000038     cui.obj (.text:CUI_btnResourceRequest)
                  00012ab0    00000038     cui.obj (.text:CUI_ledBlink)
                  00012ae8    00000038     cui.obj (.text:CUI_menuActionNavigate$6)
                  00012b20    00000038     cllc.obj (.text:Cllc_setJoinPermit)
                  00012b58    00000038     collector.obj (.text:Collector_sendDeviceTypeRequest)
                  00012b90    00000038     collector.obj (.text:Collector_sendToggleLedRequest)
                  00012bc8    00000038     driverlib.lib : osc.obj (.text:NOROM_OSC_HPOSCRelativeFrequencyOffsetGet)
                  00012c00    00000038     nvocmp.obj (.text:NVOCMP_findPage$24)
                  00012c38    00000038     drivers_cc13x2.aem4f : PINCC26XX.oem4f (.text:PIN_setConfig)
                  00012c70    00000038     rf_multiMode_cc13x2.aem4f : RFCC26X2_multiMode.c.cc13x2.ccs.o (.text:RF_checkCmdFsError)
                  00012ca8    00000038                               : RFCC26X2_multiMode.c.cc13x2.ccs.o (.text:RF_powerConstraintRelease)
                  00012ce0    00000038     collector.obj (.text:findDevice$3)
                  00012d18    00000038     maclib_secure_cc13x2.a : mac_timer.obj (.text:macTimerAligned)
                  00012d50    00000038                            : mac_timer.obj (.text:macTimerInit)
                  00012d88    00000038                            : mac_timer.obj (.text:macTimerSetRollover)
                  00012dc0    00000038                            : mac_tx.obj (.text:macTxAckNotReceivedCallback)
                  00012df8    00000038                            : mac_tx.obj (.text:macTxFrameIsr)
                  00012e30    00000038     drivers_cc13x2.aem4f : PowerCC26X2.oem4f (.text:notify)
                  00012e68    00000038                          : UARTCC26XX.oem4f (.text:readData)
                  00012ea0    00000038     rom_sysbios.aem4f : rom_sysbios.obj (.text:ti_sysbios_family_arm_cc26xx_Timer_getCurrentTick__E)
                  00012ed8    00000038     drivers_cc13x2.aem4f : UARTCC26XX.oem4f (.text:writeData)
                  00012f10    00000036     api_mac.obj (.text:ApiMac_convertCapabilityInfo)
                  00012f46    00000036     drivers_cc13x2.aem4f : LED.oem4f (.text:LED_setOn)
                  00012f7c    00000036                          : LED.oem4f (.text:clockTimeoutHandler)
                  00012fb2    00000036     rf_multiMode_cc13x2.aem4f : rf_patch_cpe_prop.c.cc13x2.ccs.o (.text:configurePropPatch)
                  00012fe8    00000036     rom_sysbios.aem4f : rom_sysbios.obj (.text:ti_sysbios_family_arm_cc26xx_Timer_setNextTick__E)
                  0001301e    00000002     --HOLE-- [fill = 0]
                  00013020    00000034     csf.obj (.text:Csf_setTrackingClock)
                  00013054    00000034     driverlib.lib : sys_ctrl.obj (.text:NOROM_SysCtrlIdle)
                  00013088    00000034     osal_port.obj (.text:OsalPort_heapFree$20)
                  000130bc    00000034     rf_multiMode_cc13x2.aem4f : RFCC26X2_multiMode.c.cc13x2.ccs.o (.text:RF_runDirectImmediateCmd)
                  000130f0    00000034     collector.obj (.text:cllcStateChangedCB$3)
                  00013124    00000034     maclib_secure_cc13x2.a : mac_hl_patch.obj (.text:macCheckPhyRate)
                  00013158    00000034                            : mac_low_level.obj (.text:macLowLevelDiags)
                  0001318c    00000034                            : mac_radio.obj (.text:macRadioSetIEEEAddr)
                  000131c0    00000034                            : mac_radio_tx.obj (.text:macRadioTxRequestTxAck)
                  000131f4    00000034                            : mac.obj (.text:macRatDisableChannelB)
                  00013228    00000034                            : mac_symbol_timer.obj (.text:macSymbolTimerCount)
                  0001325c    00000034                            : mac_tx.obj (.text:macTxRequestCsmaRtcDelay)
                  00013290    00000034     drivers_cc13x2.aem4f : UARTCC26XX.oem4f (.text:readData2RingBuf)
                  000132c4    00000034     csf.obj (.text:saveNumDeviceListEntries$4)
                  000132f8    00000034     rtsv7M4_T_le_v4SPD16_eabi.lib : strncpy.c.obj (.text:strncpy)
                  0001332c    00000034     rom_sysbios.aem4f : rom_sysbios.obj (.text:ti_sysbios_knl_Swi_setPri__E)
                  00013360    00000032     osal_port.obj (.text:OsalPort_msgExtract)
                  00013392    00000032     rom_sysbios.aem4f : rom_sysbios.obj (.text:ti_sysbios_gates_GateMutexPri_insertPri__I)
                  000133c4    00000030     csf.obj (.text:Csf_setConfigClock)
                  000133f4    00000030     drivers_cc13x2.aem4f : GPIOCC26XX.oem4f (.text:GPIO_hwiIntFxn)
                  00013424    00000030                          : GPIOCC26XX.oem4f (.text:GPIO_setCallback)
                  00013454    00000030     nvocmp.obj (.text:NVOCMP_verifyCRC$24)
                  00013484    00000030     drivers_cc13x2.aem4f : NVSCC26XX.oem4f (.text:NVSCC26XX_erase)
                  000134b4    00000030                          : PINCC26XX.oem4f (.text:PINCC26XX_setMux)
                  000134e4    00000030                          : PowerCC26X2.oem4f (.text:Power_releaseConstraint)
                  00013514    00000030                          : PowerCC26X2.oem4f (.text:Power_setConstraint)
                  00013544    00000030                          : TRNGCC26XX.oem4f (.text:TRNGCC26XX_fillEntropyPool)
                  00013574    00000030     collector.obj (.text:getMsduHandle$3)
                  000135a4    00000030     maclib_secure_cc13x2.a : mac_rx_onoff.obj (.text:macRxHardDisable)
                  000135d4    00000030                            : mac_rx_onoff.obj (.text:macRxSoftDisable)
                  00013604    00000030                            : mac_symbol_timer.obj (.text:macSymbolTimerBCWakeUp)
                  00013634    00000030                            : mac_symbol_timer.obj (.text:macSymbolTimerICallTimerCback)
                  00013664    00000030                            : mac_timer.obj (.text:macTimerCheckUnAlignedQ)
                  00013694    00000030     app_pem4f.oem4f (.text:ti_sysbios_BIOS_atExitFunc__I)
                  000136c4    00000030     app_pem4f.oem4f (.text:ti_sysbios_BIOS_startFunc__I)
                  000136f4    00000030     rom_sysbios.aem4f : rom_sysbios.obj (.text:ti_sysbios_family_arm_cc26xx_Timer_initDevice__I)
                  00013724    00000030     app_pem4f.oem4f (.text:ti_sysbios_gates_GateMutexPri_Object__create__S)
                  00013754    00000030     app_pem4f.oem4f (.text:ti_sysbios_gates_GateMutexPri_create)
                  00013784    00000030     app_pem4f.oem4f (.text:ti_sysbios_heaps_HeapCallback_Object__create__S)
                  000137b4    0000002e     csf.obj (.text:Csf_getDeviceShort)
                  000137e2    0000002e     osal_port.obj (.text:OsalPort_msgDequeue)
                  00013810    0000002e     osal_port.obj (.text:OsalPort_msgEnqueue)
                  0001383e    0000002e     rf_multiMode_cc13x2.aem4f : RFCC26X2_multiMode.c.cc13x2.ccs.o (.text:RF_queueEnd)
                  0001386c    0000002e     app_pem4f.oem4f (.text:ti_sysbios_rts_MemAlloc_alloc)
                  0001389a    00000002     --HOLE-- [fill = 0]
                  0001389c    0000002c     cui.obj (.text:CUI_ledResourceRequest)
                  000138c8    0000002c     cllc.obj (.text:Cllc_getFormingPanId)
                  000138f4    0000002c     nvocmp.obj (.text:NVOCMP_changePageState$24)
                  00013920    0000002c     nvocmp.obj (.text:NVOCMP_setCompactHdr$24)
                  0001394c    0000002c     drivers_cc13x2.aem4f : NVS.oem4f (.text:NVS_init)
                  00013978    0000002c     rf_multiMode_cc13x2.aem4f : RFCC26X2_multiMode.c.cc13x2.ccs.o (.text:RF_executeDirectImmediateCmd)
                  000139a4    0000002c     dpl_cc13x2.aem4f : SemaphoreP_tirtos.oem4f (.text:SemaphoreP_constructBinary)
                  000139d0    0000002c                      : SemaphoreP_tirtos.oem4f (.text:SemaphoreP_createBinary)
                  000139fc    0000002c     drivers_cc13x2.aem4f : TRNGCC26XX.oem4f (.text:TRNGCC26XX_stopTrng)
                  00013a28    0000002c     rf_multiMode_cc13x2.aem4f : rf_patch_cpe_prop.c.cc13x2.ccs.o (.text:applyPropPatch)
                  00013a54    0000002c     collector.obj (.text:findDeviceStatusBit$3)
                  00013a80    0000002c     maclib_secure_cc13x2.a : mac_radio.obj (.text:macRadioSetPanID)
                  00013aac    0000002c                            : mac_radio.obj (.text:macRadioSetShortAddr)
                  00013ad8    0000002c                            : mac_rx_onoff.obj (.text:macRxSoftEnable)
                  00013b04    0000002c                            : mac_symbol_timer.obj (.text:macSymbolTimerSetRollover)
                  00013b30    0000002c     saddr.obj (.text:sAddrCmp)
                  00013b5c    0000002c     app_pem4f.oem4f (.text:ti_sysbios_gates_GateMutexPri_Handle__label__S)
                  00013b88    0000002c     app_pem4f.oem4f (.text:ti_sysbios_heaps_HeapCallback_Handle__label__S)
                  00013bb4    0000002c     rom_sysbios.aem4f : rom_sysbios.obj (.text:ti_sysbios_knl_Clock_getTicksUntilInterrupt__E)
                  00013be0    0000002a     drivers_cc13x2.aem4f : List.oem4f (.text:List_insert)
                  00013c0a    0000002a     maclib_secure_cc13x2.a : mac_autopend.obj (.text:MAC_SrcMatchDeleteEntry)
                  00013c34    0000002a     rf_multiMode_cc13x2.aem4f : RFCC26X2_multiMode.c.cc13x2.ccs.o (.text:RF_searchAndReplacePAOverride)
                  00013c5e    0000002a     rom_sysbios.aem4f : rom_sysbios.obj (.text:ti_sysbios_knl_Clock_getTimeout__E)
                  00013c88    00000028     cui.obj (.text:CUI_publicAPIChecks$6)
                  00013cb0    00000028     drivers_cc13x2.aem4f : GPIOCC26XX.oem4f (.text:GPIO_read)
                  00013cd8    00000028     driverlib.lib : osc.obj (.text:NOROM_OSCHF_TurnOnXosc)
                  00013d00    00000028     rf_multiMode_cc13x2.aem4f : rfc.c.cc13x2.ccs.o (.text:NOROM_RFCOverrideSearch)
                  00013d28    00000028     drivers_cc13x2.aem4f : PowerCC26X2.oem4f (.text:Power_registerNotify)
                  00013d50    00000028     rf_multiMode_cc13x2.aem4f : RFCC26X2_multiMode.c.cc13x2.ccs.o (.text:RF_calculateDeltaTimeUs)
                  00013d78    00000028     drivers_cc13x2.aem4f : TRNGCC26XX.oem4f (.text:TRNGCC26XX_serviceJob)
                  00013da0    00000028     maclib_secure_cc13x2.a : mac_mcu.obj (.text:macMcuInit)
                  00013dc8    00000028                            : mac_rx_onoff.obj (.text:macRxEnable)
                  00013df0    00000028                            : mac_tx.obj (.text:macTxAbortIsr)
                  00013e18    00000028     drivers_cc13x2.aem4f : PowerCC26X2.oem4f (.text:oscillatorISR)
                  00013e40    00000028                          : NVSCC26XX.oem4f (.text:restoreFlashCache)
                  00013e68    00000026                          : List.oem4f (.text:List_put)
                  00013e8e    00000026                          : List.oem4f (.text:List_putHead)
                  00013eb4    00000026                          : List.oem4f (.text:List_remove)
                  00013eda    00000026     rtsv7M4_T_le_v4SPD16_eabi.lib : strncat.c.obj (.text:strncat)
                  00013f00    00000024     cui.obj (.text:CUI_publicBtnsAPIChecks$6)
                  00013f24    00000024     rf_multiMode_cc13x2.aem4f : rfc.c.cc13x2.ccs.o (.text:NOROM_RFCDoorbellSendTo)
                  00013f48    00000024                               : RFCC26X2_multiMode.c.cc13x2.ccs.o (.text:RF_cmdAlloc)
                  00013f6c    00000024                               : RFCC26X2_multiMode.c.cc13x2.ccs.o (.text:RF_invokeGlobalCallback)
                  00013f90    00000024     cllc.obj (.text:disassocIndCb$5)
                  00013fb4    00000024     drivers_cc13x2.aem4f : PowerCC26X2_calibrateRCOSC.oem4f (.text:getTdcSemaphore)
                  00013fd8    00000024     maclib_secure_cc13x2.a : mac_radio.obj (.text:macRadioSelectConfig$37)
                  00013ffc    00000024                            : mac_radio.obj (.text:macRadioSwInit)
                  00014020    00000024                            : mac.obj (.text:macSetCurrChan$33)
                  00014044    00000024                            : mac_symbol_timer.obj (.text:macSymbolTimerPowerDown)
                  00014068    00000024                            : mac_timer.obj (.text:macTimer)
                  0001408c    00000024     rtsv7M4_T_le_v4SPD16_eabi.lib : memcmp.c.obj (.text:memcmp)
                  000140b0    00000024     collector.obj (.text:processConfigRetry$3)
                  000140d4    00000024     cllc.obj (.text:startCnfCb$5)
                  000140f8    00000024     app_pem4f.oem4f (.text:ti_sysbios_BIOS_registerRTSLock__I)
                  0001411c    00000024     app_pem4f.oem4f (.text:ti_sysbios_BIOS_removeRTSLock__I)
                  00014140    00000024     rom_sysbios.aem4f : rom_sysbios.obj (.text:ti_sysbios_family_arm_cc26xx_Timer_getMaxTicks__E)
                  00014164    00000024     app_pem4f.oem4f (.text:ti_sysbios_gates_GateMutexPri_Object__delete__S)
                  00014188    00000024     app_pem4f.oem4f (.text:ti_sysbios_heaps_HeapCallback_Object__delete__S)
                  000141ac    00000022     drivers_cc13x2.aem4f : CryptoUtils.oem4f (.text:CryptoUtils_buffersMatch)
                  000141ce    00000022                          : LED.oem4f (.text:LED_stopBlinking)
                  000141f0    00000022                          : List.oem4f (.text:List_get)
                  00014212    00000022     osal_port.obj (.text:OsalPort_msgAllocate)
                  00014234    00000022     collector.obj (.text:pollIndCB$3)
                  00014256    00000022     maclib_secure_cc13x2.a : mac_radio.obj (.text:radioComputeED)
                  00014278    00000020     cui.obj (.text:CUI_getClientIndex$6)
                  00014298    00000020     cui.obj (.text:CUI_publicLedsAPIChecks$6)
                  000142b8    00000020     cui.obj (.text:CUI_updateRemLen$6)
                  000142d8    00000020     dpl_cc13x2.aem4f : HwiP_tirtos.oem4f (.text:HwiP_setFunc)
                  000142f8    00000020     maclib_secure_cc13x2.a : mac_autopend.obj (.text:MAC_SrcMatchAckAllPending)
                  00014318    00000020     nvocmp.obj (.text:NVOCMP_readByte$24)
                  00014338    00000020     osal_port.obj (.text:OsalPort_memcmp)
                  00014358    00000020     osal_port.obj (.text:OsalPort_msgDeallocate)
                  00014378    00000020     drivers_cc13x2.aem4f : PINCC26XX.oem4f (.text:PINCC26XX_setIoCfgMux)
                  00014398    00000020                          : PowerCC26X2.oem4f (.text:Power_unregisterNotify)
                  000143b8    00000020     rf_multiMode_cc13x2.aem4f : RFCC26X2_multiMode.c.cc13x2.ccs.o (.text:RF_clkPowerUp)
                  000143d8    00000020                               : RFCC26X2_multiMode.c.cc13x2.ccs.o (.text:RF_hwiCpe0ChangePhy)
                  000143f8    00000020                               : RFCC26X2_multiMode.c.cc13x2.ccs.o (.text:RF_isStateTransitionAllowed)
                  00014418    00000020                               : RFCC26X2_multiMode.c.cc13x2.ccs.o (.text:RF_ratIsRunning)
                  00014438    00000020                               : RFCC26X2_multiMode.c.cc13x2.ccs.o (.text:RF_setTxPower)
                  00014458    00000020     crc.obj (.text:crc_update)
                  00014478    00000020     maclib_secure_cc13x2.a : mac_radio.obj (.text:macGetRadioState)
                  00014498    00000020                            : mac_rx_onoff.obj (.text:macRxOff)
                  000144b8    00000020                            : mac_tx.obj (.text:macTxFrameRetransmit)
                  000144d8    00000020     csf.obj (.text:openCloseNwkAndUpdateUser$4)
                  000144f8    00000020     csf.obj (.text:processBroadcastTimeoutCallback$4)
                  00014518    00000020     csf.obj (.text:processConfigTimeoutCallback$4)
                  00014538    00000020     csf.obj (.text:processJoinTimeoutCallback$4)
                  00014558    00000020     csf.obj (.text:processKeyChangeCallback$4)
                  00014578    00000020     csf.obj (.text:processTrackingTimeoutCallback$4)
                  00014598    00000020     drivers_cc13x2.aem4f : UARTCC26XX.oem4f (.text:threadSafeStdbyDisRelease)
                  000145b8    00000020                          : UARTCC26XX.oem4f (.text:threadSafeStdbyDisSet)
                  000145d8    00000020     app_pem4f.oem4f (.text:ti_sysbios_BIOS_rtsLock__I)
                  000145f8    00000020     rom_sysbios.aem4f : rom_sysbios.obj (.text:ti_sysbios_family_arm_cc26xx_Timer_dynamicStub__E)
                  00014618    0000001e     osal_port.obj (.text:OsalPort_buildUint32)
                  00014636    0000001e     drivers_cc13x2.aem4f : PINCC26XX.oem4f (.text:PIN_close)
                  00014654    0000001e                          : PowerCC26X2.oem4f (.text:Power_getTransitionLatency)
                  00014672    0000001e     maclib_secure_cc13x2.a : mac_hl_patch.obj (.text:macPibIndex)
                  00014690    0000001e     csf.obj (.text:moveCursorLeft$4)
                  000146ae    0000001e     csf.obj (.text:moveCursorRight$4)
                  000146cc    0000001e     drivers_cc13x2.aem4f : Button.oem4f (.text:msToTicks)
                  000146ea    0000001e                          : LED.oem4f (.text:msToTicks)
                  00014708    0000001c     ti_drivers_config.obj (.text:Board_init)
                  00014724    0000001c     cllc.obj (.text:Cllc_findDevice)
                  00014740    0000001c     cllc.obj (.text:Cllc_securityFill)
                  0001475c    0000001c     driverlib.lib : chipinfo.obj (.text:NOROM_ChipInfo_GetChipFamily)
                  00014778    0000001c                   : flash.obj (.text:NOROM_FlashProgram)
                  00014794    0000001c                   : flash.obj (.text:NOROM_FlashSectorErase)
                  000147b0    0000001c     nvocmp.obj (.text:NVOCMP_getCompactHdr$24)
                  000147cc    0000001c     nvocmp.obj (.text:NVOCMP_writeByte$24)
                  000147e8    0000001c     drivers_cc13x2.aem4f : NVSCC26XX.oem4f (.text:NVSCC26XX_getAttrs)
                  00014804    0000001c                          : NVSCC26XX.oem4f (.text:NVSCC26XX_lock)
                  00014820    0000001c                          : PINCC26XX.oem4f (.text:PIN_hwi)
                  0001483c    0000001c     dpl_cc13x2.aem4f : PowerCC26X2_tirtos.oem4f (.text:PowerCC26XX_schedulerDisable)
                  00014858    0000001c                      : PowerCC26X2_tirtos.oem4f (.text:PowerCC26XX_schedulerRestore)
                  00014874    0000001c     rf_multiMode_cc13x2.aem4f : RFCC26X2_multiMode.c.cc13x2.ccs.o (.text:RF_clkInactivityCallback)
                  00014890    0000001c                               : RFCC26X2_multiMode.c.cc13x2.ccs.o (.text:RF_getPAOverrideOffsetAndValue)
                  000148ac    0000001c                               : RFCC26X2_multiMode.c.cc13x2.ccs.o (.text:RF_getRssi)
                  000148c8    0000001c                               : RFCC26X2_multiMode.c.cc13x2.ccs.o (.text:RF_powerConstraintSet)
                  000148e4    0000001c     cllc.obj (.text:dataIndCb$5)
                  00014900    0000001c     maclib_secure_cc13x2.a : mac_mcu.obj (.text:macMcuTimerCapture)
                  0001491c    0000001c                            : mac_radio.obj (.text:macRadioEnergyDetectStop)
                  00014938    0000001c                            : mac_radio.obj (.text:macRadioInit)
                  00014954    0000001c                            : mac_radio_tx.obj (.text:macRadioTxGo)
                  00014970    0000001c                            : mac_rx.obj (.text:macRxAckTxDoneCallback)
                  0001498c    0000001c                            : mac_timer.obj (.text:macTimerRemoveTimer)
                  000149a8    0000001c                            : mac_rx.obj (.text:rxDone$39)
                  000149c4    0000001c     saddr.obj (.text:sAddrExtCmp)
                  000149e0    0000001c     csf.obj (.text:sensorDeviceTypeRequestAction$4)
                  000149fc    0000001c     csf.obj (.text:sensorDisassocAction$4)
                  00014a18    0000001c     csf.obj (.text:sensorLedToggleAction$4)
                  00014a34    0000001c     rom_sysbios.aem4f : rom_sysbios.obj (.text:ti_sysbios_knl_Swi_construct2__E)
                  00014a50    0000001a     drivers_cc13x2.aem4f : LED.oem4f (.text:LED_toggle)
                  00014a6a    0000001a     osal_port.obj (.text:OsalPort_enterCS)
                  00014a84    0000001a     drivers_cc13x2.aem4f : PowerCC26X2.oem4f (.text:PowerCC26XX_calibrate)
                  00014a9e    0000001a     api_mac.obj (.text:copyApiMacAddrToMacAddr)
                  00014ab8    0000001a     maclib_secure_cc13x2.a : mac_hl_patch.obj (.text:macCheckPhyMode)
                  00014ad2    0000001a                            : mac_mcu.obj (.text:macMcuLongDiv)
                  00014aec    00000004     api_mac.obj (.text:ApiMac_mcpsDataReq)
                  00014af0    0000001a     rom_sysbios.aem4f : rom_sysbios_config.obj (.text:xdc_runtime_System_snprintf__E)
                  00014b0a    00000002     --HOLE-- [fill = 0]
                  00014b0c    00000018     cui.obj (.text:CUI_publicUartAPIChecks$6)
                  00014b24    00000018     driverlib.lib : chipinfo.obj (.text:NOROM_ChipInfo_GetPackageType)
                  00014b3c    00000018     nvocmp.obj (.text:NVOCMP_restoreCache$24)
                  00014b54    00000018     osal_port.obj (.text:OsalPort_msgPush)
                  00014b6c    00000018     drivers_cc13x2.aem4f : PowerCC26X2.oem4f (.text:Power_idleFunc)
                  00014b84    00000018     rf_multiMode_cc13x2.aem4f : RFCC26X2_multiMode.c.cc13x2.ccs.o (.text:RF_ScheduleCmdParams_init)
                  00014b9c    00000018                               : RFCC26X2_multiMode.c.cc13x2.ccs.o (.text:RF_cancelCmd)
                  00014bb4    00000018                               : RFCC26X2_multiMode.c.cc13x2.ccs.o (.text:RF_swiFsm)
                  00014bcc    00000018     drivers_cc13x2.aem4f : TRNGCC26XX.oem4f (.text:TRNGCC26XX_startJob)
                  00014be4    00000018                          : UART.oem4f (.text:UART_Params_init)
                  00014bfc    00000018     cui.obj (.text:UartWriteCallback$6)
                  00014c14    00000018     rtsv7M4_T_le_v4SPD16_eabi.lib : args_main.c.obj (.text:_args_main)
                  00014c2c    00000018     csf.obj (.text:closeNwkAction$4)
                  00014c44    00000018     collector.obj (.text:commStatusIndCB$3)
                  00014c5c    00000018     api_mac.obj (.text:copyMacAddrToApiMacAddr$26)
                  00014c74    00000018     csf.obj (.text:formNwkAction$4)
                  00014c8c    00000018     maclib_secure_cc13x2.a : mac_symbol_timer.obj (.text:macCsmaTimerExpiry)
                  00014ca4    00000018                            : mac_radio.obj (.text:macRadioSetTxPower)
                  00014cbc    00000018                            : mac_radio_tx.obj (.text:macRadioTxCancelTxAck)
                  00014cd4    00000018                            : mac_rx_onoff.obj (.text:macRxOnRequest)
                  00014cec    00000018                            : mac_autopend.obj (.text:macSrcMatchGetEnableBit$34)
                  00014d04    00000018                            : mac_symbol_timer.obj (.text:macSymbolBCTimerPowerUp)
                  00014d1c    00000018                            : mac_symbol_timer.obj (.text:macSymbolTimerRestore)
                  00014d34    00000018                            : mac_symbol_timer.obj (.text:macSymbolTimerSetTriggerRollover)
                  00014d4c    00000018                            : mac_timer.obj (.text:macTimerSyncRollover)
                  00014d64    00000018                            : mac_hl_patch.obj (.text:macWrapper8ByteUnused)
                  00014d7c    00000018     csf.obj (.text:openNwkAction$4)
                  00014d94    00000018     csf.obj (.text:processMenuUpdate$4)
                  00014dac    00000018     rtsv7M4_T_le_v4SPD16_eabi.lib : ll_mul_t2.asm.obj (.text)
                  00014dc4    00000018     maclib_secure_cc13x2.a : mac_rx.obj (.text:rxDiscardFrame$39)
                  00014ddc    00000018     app_pem4f.oem4f (.text:ti_sysbios_BIOS_rtsUnlock__I)
                  00014df4    00000018     rom_sysbios.aem4f : rom_sysbios.obj (.text:ti_sysbios_gates_GateMutexPri_Instance_init__E)
                  00014e0c    00000018                       : rom_sysbios.obj (.text:ti_sysbios_heaps_HeapCallback_Instance_init__E)
                  00014e24    00000018                       : rom_sysbios.obj (.text:ti_sysbios_knl_Swi_or__E)
                  00014e3c    00000018     maclib_secure_cc13x2.a : mac_tx.obj (.text:txCsmaGo$43)
                  00014e54    00000018     cllc.obj (.text:updateState$5)
                  00014e6c    00000018     rom_sysbios.aem4f : rom_sysbios.obj (.text:xdc_runtime_Error_init__E)
                  00014e84    00000018     app_pem4f.oem4f (.text:xdc_runtime_Startup_exec__I)
                  00014e9c    00000016     osal_port.obj (.text:OsalPort_leaveCS)
                  00014eb2    00000016     rf_multiMode_cc13x2.aem4f : RFCC26X2_multiMode.c.cc13x2.ccs.o (.text:RF_restartClockTimeout)
                  00014ec8    00000016     mac_util.obj (.text:Util_clearEvent)
                  00014ede    00000016     mac_util.obj (.text:Util_setEvent)
                  00014ef4    00000016     app_pem4f.oem4f (.text:ti_sysbios_BIOS_exitFunc__I)
                  00014f0a    00000016     rom_sysbios.aem4f : rom_sysbios.obj (.text:ti_sysbios_knl_Clock_setFunc__E)
                  00014f20    00000016                       : rom_sysbios.obj (.text:ti_sysbios_knl_Task_block__E)
                  00014f36    00000002     --HOLE-- [fill = 0]
                  00014f38    00000014     drivers_cc13x2.aem4f : AESCCMCC26XX.oem4f (.text:AESCCM_init)
                  00014f4c    00000014     cui.obj (.text:CUI_menuActionBack)
                  00014f60    00000014     drivers_cc13x2.aem4f : List.oem4f (.text:List_clearList)
                  00014f74    00000014     macTask.obj (.text:MAC_CbackCheckPending)
                  00014f88    00000014     macTask.obj (.text:MAC_CbackQueryRetransmit)
                  00014f9c    00000014     maclib_secure_cc13x2.a : mac_autopend.obj (.text:MAC_SrcMatchCheckAllPending)
                  00014fb0    00000014     rf_multiMode_cc13x2.aem4f : rfc.c.cc13x2.ccs.o (.text:NOROM_RFCCpeIntGetAndClear)
                  00014fc4    00000014     drivers_cc13x2.aem4f : PWM.oem4f (.text:PWM_Params_init)
                  00014fd8    00000014                          : PowerCC26X2_calibrateRCOSC.oem4f (.text:PowerCC26X2_calibrate)
                  00014fec    00000014     rf_multiMode_cc13x2.aem4f : RFCC26X2_multiMode.c.cc13x2.ccs.o (.text:RF_Params_init)
                  00015000    00000014                               : RFCC26X2_multiMode.c.cc13x2.ccs.o (.text:RF_RatConfigCompare_init)
                  00015014    00000014                               : RFCC26X2_multiMode.c.cc13x2.ccs.o (.text:RF_dbellSyncOnAck)
                  00015028    00000014                               : RFCC26X2_multiMode.c.cc13x2.ccs.o (.text:RF_flushCmd)
                  0001503c    00000014                               : RFCC26X2_multiMode.c.cc13x2.ccs.o (.text:RF_ratCompare)
                  00015050    00000014                               : RFCC26X2_multiMode.c.cc13x2.ccs.o (.text:RF_ratGetChannel)
                  00015064    00000014     drivers_cc13x2.aem4f : StructRingBuf.oem4f (.text:StructRingBuf_construct)
                  00015078    00000014                          : TRNGCC26XX.oem4f (.text:TRNG_close)
                  0001508c    00000014     cllc.obj (.text:commStatusIndCb$5)
                  000150a0    00000014     maclib_secure_cc13x2.a : mac_mcu.obj (.text:macMcuOverflowCapture)
                  000150b4    00000014     saddr.obj (.text:sAddrCpy)
                  000150c8    00000014     saddr.obj (.text:sAddrExtCpy)
                  000150dc    00000014     cllc.obj (.text:switchState$5)
                  000150f0    00000014     drivers_cc13x2.aem4f : PowerCC26X2.oem4f (.text:switchToTCXO)
                  00015104    00000014     rom_sysbios.aem4f : rom_sysbios.obj (.text:ti_sysbios_family_arm_cc26xx_Timer_getCount64__E)
                  00015118    00000014     app_pem4f.oem4f (.text:ti_sysbios_heaps_HeapCallback_Object__get__S)
                  0001512c    00000014     app_pem4f.oem4f (.text:ti_sysbios_knl_Clock_doTick__I)
                  00015140    00000014     drivers_cc13x2.aem4f : Button.oem4f (.text:timediff)
                  00015154    00000012                          : LED.oem4f (.text:LED_Params_init)
                  00015166    00000012     rf_multiMode_cc13x2.aem4f : RFCC26X2_multiMode.c.cc13x2.ccs.o (.text:RF_getCmdOp)
                  00015178    00000012     drivers_cc13x2.aem4f : RingBuf.oem4f (.text:RingBuf_construct)
                  0001518a    00000012     dpl_cc13x2.aem4f : SemaphoreP_tirtos.oem4f (.text:SemaphoreP_pend)
                  0001519c    00000010     drivers_cc13x2.aem4f : AESCCM.oem4f (.text:AESCCM_Params_init)
                  000151ac    00000010                          : AESCCM.oem4f (.text:AESCCM_open)
                  000151bc    00000010                          : Button.oem4f (.text:Button_Params_init)
                  000151cc    00000010     cllc.obj (.text:Cllc_getDefaultKey)
                  000151dc    00000010     dpl_cc13x2.aem4f : ClockP_tirtos.oem4f (.text:ClockP_isActive)
                  000151ec    00000010     drivers_cc13x2.aem4f : GPIOCC26XX.oem4f (.text:GPIO_getConfig)
                  000151fc    00000010     dpl_cc13x2.aem4f : HwiP_tirtos.oem4f (.text:HwiP_Params_init)
                  0001520c    00000010     main.obj (.text:Main_assertHandler)
                  0001521c    00000010     rf_multiMode_cc13x2.aem4f : rfc.c.cc13x2.ccs.o (.text:NOROM_RFCHwIntGetAndClear)
                  0001522c    00000010     drivers_cc13x2.aem4f : PINCC26XX.oem4f (.text:PINCC26XX_getPinCount)
                  0001523c    00000010     rf_multiMode_cc13x2.aem4f : RFCC26X2_multiMode.c.cc13x2.ccs.o (.text:RF_dbellSubmitCmdAsync)
                  0001524c    00000010                               : RFCC26X2_multiMode.c.cc13x2.ccs.o (.text:RF_isClientOwner)
                  0001525c    00000010     dpl_cc13x2.aem4f : SwiP_tirtos.oem4f (.text:SwiP_Params_init)
                  0001526c    00000010     util_timer.obj (.text:Timer_isActive)
                  0001527c    00000010     rom_sysbios.aem4f : rom_sysbios.obj (.text:ti_sysbios_family_arm_m3_Hwi_post__E)
                  0001528c    00000010                       : rom_sysbios.obj (.text:ti_sysbios_gates_GateMutexPri_Instance_finalize__E)
                  0001529c    00000010                       : rom_sysbios.obj (.text:ti_sysbios_heaps_HeapCallback_Instance_finalize__E)
                  000152ac    00000010                       : rom_sysbios.obj (.text:ti_sysbios_heaps_HeapCallback_alloc__E)
                  000152bc    00000010                       : rom_sysbios.obj (.text:ti_sysbios_heaps_HeapCallback_free__E)
                  000152cc    00000010                       : rom_sysbios.obj (.text:ti_sysbios_heaps_HeapCallback_getStats__E)
                  000152dc    00000010                       : rom_sysbios.obj (.text:ti_sysbios_heaps_HeapCallback_isBlocking__E)
                  000152ec    00000010     maclib_secure_cc13x2.a : mac_tx.obj (.text:txLbtPrep$43)
                  000152fc    00000010     drivers_cc13x2.aem4f : UARTCC26XX.oem4f (.text:uartPostNotify)
                  0001530c    0000000e     api_mac.obj (.text:ApiMac_mlmeSetReqBool)
                  0001531a    0000000e     api_mac.obj (.text:ApiMac_mlmeSetReqUint16)
                  00015328    0000000e     api_mac.obj (.text:ApiMac_mlmeSetReqUint8)
                  00015336    0000000e     drivers_cc13x2.aem4f : CryptoKeyPlaintextCC26XX.oem4f (.text:CryptoKeyPlaintext_initKey)
                  00015344    0000000e                          : NVS.oem4f (.text:NVS_write)
                  00015352    0000000e     rf_multiMode_cc13x2.aem4f : RFCC26X2_multiMode.c.cc13x2.ccs.o (.text:RF_getSwitchingTimeInUs)
                  00015360    0000000e     drivers_cc13x2.aem4f : StructRingBuf.oem4f (.text:StructRingBuf_isFull)
                  0001536e    0000000e     mac_util.obj (.text:Util_buildUint32)
                  0001537c    0000000e     rtsv7M4_T_le_v4SPD16_eabi.lib : copy_decompress_none.c.obj (.text:decompress:none:__TI_decompress_none)
                  0001538a    0000000e     rom_sysbios.aem4f : rom_sysbios.obj (.text:ti_sysbios_family_arm_cc26xx_TimestampProvider_get32__E)
                  00015398    0000000c     drivers_cc13x2.aem4f : AESCCMCC26XX.oem4f (.text:AESCCM_close)
                  000153a4    0000000c     cllc.obj (.text:Cllc_getChanMask)
                  000153b0    0000000c     dpl_cc13x2.aem4f : ClockP_tirtos.oem4f (.text:ClockP_getSystemTickPeriod)
                  000153bc    0000000c     maclib_secure_cc13x2.a : mac_pwr.obj (.text:MAC_PwrMode)
                  000153c8    0000000c     driverlib.lib : cpu.obj (.text:NOROM_CPUcpsid)
                  000153d4    0000000c                   : cpu.obj (.text:NOROM_CPUcpsie)
                  000153e0    0000000c     nvocmp.obj (.text:NVOCMP_doRAMCRC$24)
                  000153ec    0000000c     drivers_cc13x2.aem4f : NVSCC26XX.oem4f (.text:NVSCC26XX_unlock)
                  000153f8    0000000c     osal_port.obj (.text:OsalPort_clockFunc$20)
                  00015404    0000000c     osal_port.obj (.text:OsalPort_stopTimer)
                  00015410    0000000c     drivers_cc13x2.aem4f : PINCC26XX.oem4f (.text:PIN_registerIntCb)
                  0001541c    0000000c                          : PowerCC26X2.oem4f (.text:Power_getConstraintMask)
                  00015428    0000000c                          : PowerCC26X2.oem4f (.text:Power_getDependencyCount)
                  00015434    0000000c     rf_multiMode_cc13x2.aem4f : RFCC26X2_multiMode.c.cc13x2.ccs.o (.text:RF_powerConstraintGet)
                  00015440    0000000c     dpl_cc13x2.aem4f : SemaphoreP_tirtos.oem4f (.text:SemaphoreP_delete)
                  0001544c    0000000c     rtsv7M4_T_le_v4SPD16_eabi.lib : _lock.c.obj (.text:_register_lock)
                  00015458    0000000c                                   : _lock.c.obj (.text:_register_unlock)
                  00015464    0000000c                                   : copy_zero_init.c.obj (.text:decompress:ZI:__TI_zero_init)
                  00015470    0000000c     maclib_secure_cc13x2.a : mac_low_level.obj (.text:macLowLevelReset)
                  0001547c    0000000c                            : mac_low_level.obj (.text:macLowLevelResume)
                  00015488    0000000c                            : mac_pwr.obj (.text:macPwrReset)
                  00015494    0000000c                            : mac.obj (.text:macRegisterSfdDetect)
                  000154a0    0000000c                            : mac_rx.obj (.text:macRxSequenceNum)
                  000154ac    0000000c     app_pem4f.oem4f (.text:ti_sysbios_gates_GateMutexPri_Params__init__S)
                  000154b8    0000000c     rom_sysbios.aem4f : rom_sysbios.obj (.text:ti_sysbios_knl_Queue_insert__E)
                  000154c4    0000000c                       : rom_sysbios.obj (.text:ti_sysbios_knl_Swi_getTrigger__E)
                  000154d0    0000000a     cui.obj (.text:CUI_paramsInit)
                  000154da    0000000a     dpl_cc13x2.aem4f : ClockP_tirtos.oem4f (.text:ClockP_Params_init)
                  000154e4    0000000a     maclib_secure_cc13x2.a : fh_ie_patch.obj (.text:FHIEPATCH_getPieId)
                  000154ee    0000000a     drivers_cc13x2.aem4f : NVS.oem4f (.text:NVS_erase)
                  000154f8    0000000a                          : NVS.oem4f (.text:NVS_getAttrs)
                  00015502    0000000a                          : NVS.oem4f (.text:NVS_read)
                  0001550c    0000000a                          : PWM.oem4f (.text:PWM_close)
                  00015516    0000000a                          : PWM.oem4f (.text:PWM_setDuty)
                  00015520    0000000a                          : PWM.oem4f (.text:PWM_start)
                  0001552a    0000000a                          : UART.oem4f (.text:UART_close)
                  00015534    0000000a                          : UART.oem4f (.text:UART_control)
                  0001553e    0000000a                          : UART.oem4f (.text:UART_read)
                  00015548    0000000a                          : UART.oem4f (.text:UART_readCancel)
                  00015552    0000000a                          : UART.oem4f (.text:UART_write)
                  0001555c    0000000a     mac_util.obj (.text:Util_copyExtAddr)
                  00015566    0000000a     maclib_secure_cc13x2.a : mac_mcu.obj (.text:macMcuRandomByte)
                  00015570    00000008     drivers_cc13x2.aem4f : AESCCM.oem4f (.text:AESCCM_Operation_init)
                  00015578    00000008     api_mac.obj (.text:ApiMac_mlmeSetReqArray)
                  00015580    00000008     drivers_cc13x2.aem4f : LED.oem4f (.text:LED_getState)
                  00015588    00000008                          : NVSCC26XX.oem4f (.text:NVSCC26XX_close)
                  00015590    00000008     rf_multiMode_cc13x2.aem4f : RFCC26X2_multiMode.c.cc13x2.ccs.o (.text:RF_RatConfigOutput_init)
                  00015598    00000008     util_timer.obj (.text:Timer_setTimeout)
                  000155a0    00000008     drivers_cc13x2.aem4f : UARTCC26XX.oem4f (.text:UARTCC26XX_init)
                  000155a8    00000008     mac_util.obj (.text:Util_breakUint32)
                  000155b0    00000008     mac_util.obj (.text:Util_buildUint16)
                  000155b8    00000008     rtsv7M4_T_le_v4SPD16_eabi.lib : errno.c.obj (.text:__aeabi_errno_addr)
                  000155c0    00000008     drivers_cc13x2.aem4f : UARTCC26XX.oem4f (.text:readSemCallback)
                  000155c8    00000008                          : UARTCC26XX.oem4f (.text:writeSemCallback)
                  000155d0    00000008     app_pem4f.oem4f (.text:xdc_runtime_Text_visitRope__I)
                  000155d8    00000006     drivers_cc13x2.aem4f : AESCCMCC26XX.oem4f (.text:AESCCM_oneStepDecrypt)
                  000155de    00000006                          : AESCCMCC26XX.oem4f (.text:AESCCM_oneStepEncrypt)
                  000155e4    00000006     main.obj (.text:Main_excHandler)
                  000155ea    00000006     driverlib.lib : cpu.obj (.text:NOROM_CPUdelay)
                  000155f0    00000006     drivers_cc13x2.aem4f : NVSCC26XX.oem4f (.text:NVSCC26XX_control)
                  000155f6    00000006     rf_multiMode_cc13x2.aem4f : RFCC26X2_multiMode.c.cc13x2.ccs.o (.text:RF_clkReqAccess)
                  000155fc    00000006                               : RFCC26X2_multiMode.c.cc13x2.ccs.o (.text:RF_runDirectCmd)
                  00015602    00000006                               : RFCC26X2_multiMode.c.cc13x2.ccs.o (.text:RF_runImmediateCmd)
                  00015608    00000006     drivers_cc13x2.aem4f : UARTCC26XX.oem4f (.text:UARTCC26XX_readPolling)
                  0001560e    00000006                          : UARTCC26XX.oem4f (.text:UARTCC26XX_writePolling)
                  00015614    00000006     mac_util.obj (.text:Util_hiUint16)
                  0001561a    00000006     main.obj (.text:halAssertHandler)
                  00015620    00000006     main.obj (.text:macHalAssertHandler)
                  00015626    00000006     osal_port.obj (.text:osalHeapAllocFxn)
                  0001562c    00000006     osal_port.obj (.text:osalHeapFreeFxn)
                  00015632    00000006     rom_sysbios.aem4f : rom_sysbios.obj (.text:ti_sysbios_family_arm_m3_Hwi_setFunc__E)
                  00015638    00000004     api_mac.obj (.text:ApiMac_mlmeGetReqUint16)
                  0001563c    00000004     api_mac.obj (.text:ApiMac_mlmeSetSecurityReqStruct)
                  00015640    00000004     dpl_cc13x2.aem4f : PowerCC26X2_tirtos.oem4f (.text:CPUwfi)
                  00015644    00000004                      : ClockP_tirtos.oem4f (.text:ClockP_destruct)
                  00015648    00000004                      : ClockP_tirtos.oem4f (.text:ClockP_getCpuFreq)
                  0001564c    00000004                      : ClockP_tirtos.oem4f (.text:ClockP_getTimeout)
                  00015650    00000004                      : ClockP_tirtos.oem4f (.text:ClockP_setTimeout)
                  00015654    00000004                      : ClockP_tirtos.oem4f (.text:ClockP_start)
                  00015658    00000004                      : ClockP_tirtos.oem4f (.text:ClockP_stop)
                  0001565c    00000004     maclib_secure_cc13x2.a : fh_ie_patch.obj (.text:FHIEPATCH_extractHie)
                  00015660    00000004                            : fh_ie_patch.obj (.text:FHIEPATCH_extractPie)
                  00015664    00000004                            : fh_ie_patch.obj (.text:FHIEPATCH_genHie)
                  00015668    00000004                            : fh_ie_patch.obj (.text:FHIEPATCH_genPieContent)
                  0001566c    00000004                            : fh_ie_patch.obj (.text:FHIEPATCH_getHieLen)
                  00015670    00000004                            : fh_ie_patch.obj (.text:FHIEPATCH_getPieContentLen)
                  00015674    00000004                            : fh_ie_patch.obj (.text:FHIEPATCH_parseHie)
                  00015678    00000004                            : fh_ie_patch.obj (.text:FHIEPATCH_parsePie)
                  0001567c    00000004     dpl_cc13x2.aem4f : HwiP_tirtos.oem4f (.text:HwiP_destruct)
                  00015680    00000004                      : HwiP_tirtos.oem4f (.text:HwiP_disable)
                  00015684    00000004                      : HwiP_tirtos.oem4f (.text:HwiP_enableInterrupt)
                  00015688    00000004                      : HwiP_tirtos.oem4f (.text:HwiP_post)
                  0001568c    00000004                      : HwiP_tirtos.oem4f (.text:HwiP_setPriority)
                  00015690    00000004     rf_multiMode_cc13x2.aem4f : rfc.c.cc13x2.ccs.o (.text:NOROM_RFCOverrideUpdate)
                  00015694    00000004                               : RFCC26X2_multiMode.c.cc13x2.ccs.o (.text:RF_defaultConflictPolicy)
                  00015698    00000004     dpl_cc13x2.aem4f : SemaphoreP_tirtos.oem4f (.text:SemaphoreP_destruct)
                  0001569c    00000004                      : SemaphoreP_tirtos.oem4f (.text:SemaphoreP_post)
                  000156a0    00000004                      : SwiP_tirtos.oem4f (.text:SwiP_destruct)
                  000156a4    00000004                      : SwiP_tirtos.oem4f (.text:SwiP_disable)
                  000156a8    00000004                      : SwiP_tirtos.oem4f (.text:SwiP_getTrigger)
                  000156ac    00000004                      : SwiP_tirtos.oem4f (.text:SwiP_or)
                  000156b0    00000004                      : SwiP_tirtos.oem4f (.text:SwiP_setPriority)
                  000156b4    00000004     util_timer.obj (.text:Timer_start)
                  000156b8    00000004     util_timer.obj (.text:Timer_stop)
                  000156bc    00000004     mac_util.obj (.text:Util_loUint16)
                  000156c0    00000004     drivers_cc13x2.aem4f : PowerCC26X2.oem4f (.text:configureRFCoreClocks)
                  000156c4    00000004     maclib_secure_cc13x2.a : mac_hl_patch.obj (.text:macPibCheckByPatch)
                  000156c8    00000004                            : mac_radio.obj (.text:macRadioComputeLQI)
                  000156cc    00000004                            : mac_symbol_timer.obj (.text:macSymbolTimerPwrNotify$42)
                  000156d0    00000004     drivers_cc13x2.aem4f : PowerCC26X2.oem4f (.text:nopResourceHandler)
                  000156d4    00000004     osal_port.obj (.text:osalHeapIsBlockingFxn)
                  000156d8    00000004     rom_sysbios.aem4f : rom_sysbios.obj (.text:ti_sysbios_gates_GateMutexPri_query__E)
                  000156dc    00000004                       : rom_sysbios.obj (.text:ti_sysbios_heaps_HeapCallback_defaultCreate)
                  000156e0    00000004                       : rom_sysbios.obj (.text:ti_sysbios_knl_Clock_isActive__E)
                  000156e4    00000004                       : rom_sysbios.obj (.text:ti_sysbios_knl_Task_getPri__E)
                  000156e8    00000004     app_pem4f.oem4f (.text:xdc_runtime_Startup_reset__I)
                  000156ec    00000004     rom_sysbios.aem4f : rom_sysbios.obj (.text:xdc_runtime_SysCallback_defaultReady)
                  000156f0    00000004                       : rom_sysbios.obj (.text:xdc_runtime_System_snprintf_va__F)
                  000156f4    00000008     (.tramp.ti_sysbios_knl_Swi_destruct.1)
                  000156fc    00000008     (.tramp.ti_sysbios_knl_Semaphore_destruct.1)
                  00015704    00000008     (.tramp.ti_sysbios_family_arm_m3_Hwi_setPriority__E.1)
                  0001570c    00000008     (.tramp.ti_sysbios_family_arm_m3_Hwi_enableInterrupt__E.1)
                  00015714    00000008     (.tramp.ti_sysbios_family_arm_m3_Hwi_destruct.1)
                  0001571c    00000008     (.tramp.ti_sysbios_BIOS_getCpuFreq__E.1)
                  00015724    00000008     (.tramp.ti_sysbios_knl_Clock_destruct.1)
                  0001572c    00000008     (.tramp.MAC_McpsDataReq.1)
                  00015734    00000008     (.tramp.xdc_runtime_Core_assignParams__I.1)
                  0001573c    00000008     (.tramp.ti_sysbios_knl_Semaphore_delete.1)
                  00015744    00000008     (.tramp.MAC_MlmeSetReq.1)
                  0001574c    00000008     (.tramp.ti_sysbios_knl_Queue_destruct.1)
                  00015754    00000008     (.tramp.ti_sysbios_knl_Clock_logTick__E.1)
                  0001575c    00000008     (.tramp.ti_sysbios_knl_Task_blockI__E.1)
                  00015764    00000008     (.tramp.ti_sysbios_knl_Swi_post__E.1)
                  0001576c    00000008     (.tramp.ti_sysbios_knl_Queue_construct.1)
                  00015774    00000008     (.tramp.ti_sysbios_BIOS_RtsGateProxy_leave__E.1)
                  0001577c    00000008     (.tramp.ti_sysbios_knl_Swi_construct.1)
                  00015784    00000008     (.tramp.ti_sysbios_BIOS_RtsGateProxy_enter__E.1)
                  0001578c    00000008     (.tramp.ti_sysbios_family_arm_m3_Hwi_disableFxn__E.1)
                  00015794    00000008     (.tramp.xdc_runtime_Core_deleteObject__I.1)
                  0001579c    00000008     (.tramp.ti_sysbios_knl_Clock_TimerProxy_getCurrentTick__E.1)
                  000157a4    00000008     (.tramp.ti_sysbios_knl_Semaphore_create.1)
                  000157ac    00000008     (.tramp.xdc_runtime_Memory_alloc__E.1)
                  000157b4    00000008     (.tramp.xdc_runtime_Core_createObject__I.1)
                  000157bc    00000008     (.tramp.ti_sysbios_knl_Task_startup__E.1)
                  000157c4    00000008     (.tramp.ti_sysbios_knl_Swi_startup__E.1)
                  000157cc    00000008     (.tramp.ti_sysbios_hal_Hwi_startup__E.1)
                  000157d4    00000008     (.tramp.ti_sysbios_family_arm_cc26xx_Timer_startup__E.1)
                  000157dc    00000008     (.tramp.xdc_runtime_System_atexit__E.1)
                  000157e4    00000008     (.tramp.ti_sysbios_BIOS_linkedWithIncorrectBootLibrary__E.1)
                  000157ec    00000008     (.tramp.ti_sysbios_BIOS_setThreadType__E.1)
                  000157f4    00000008     (.tramp.ti_sysbios_knl_Swi_disable__E.1)
                  000157fc    00000008     (.tramp.ti_sysbios_knl_Queue_next__E.1)
                  00015804    00000008     (.tramp.ti_sysbios_knl_Queue_head__E.1)
                  0001580c    00000008     (.tramp.ti_sysbios_knl_Queue_Object__get__S.1)
                  00015814    00000008     (.tramp.ti_sysbios_family_arm_m3_Hwi_construct.1)
                  0001581c    00000008     (.tramp.ti_sysbios_knl_Swi_Params__init__S.1)
                  00015824    00000008     (.tramp.ti_sysbios_family_arm_m3_Hwi_Params__init__S.1)
                  0001582c    00000008     (.tramp.xdc_runtime_Startup_rtsDone__E.1)
                  00015834    00000008     (.tramp.MAC_MlmeDisassociateReq.1)
                  0001583c    00000008     (.tramp.ti_sysbios_knl_Clock_construct.1)
                  00015844    00000008     (.tramp.xdc_runtime_System_exit__E.1)
                  0001584c    00000008     (.tramp.MAC_MlmeScanReq.1)
                  00015854    00000008     (.tramp.ti_sysbios_BIOS_start__E.1)
                  0001585c    00000008     (.tramp.MAC_MlmeOrphanRsp.1)
                  00015864    00000008     (.tramp.MAC_MlmeStartReq.1)
                  0001586c    00000008     (.tramp.ti_sysbios_knl_Task_unblockI__E.1)
                  00015874    00000008     (.tramp.ti_sysbios_knl_Queue_dequeue__E.1)
                  0001587c    00000008     (.tramp.MAC_MlmeSetSecurityReq.1)
                  00015884    00000008     (.tramp.MAC_MlmeResetReq.1)
                  0001588c    00000008     (.tramp.ti_sysbios_knl_Task_sleep__E.1)
                  00015894    00000008     (.tramp.ti_sysbios_knl_Task_self__E.1)
                  0001589c    00000008     (.tramp.ti_sysbios_knl_Task_restore__E.1)
                  000158a4    00000008     (.tramp.ti_sysbios_knl_Queue_enqueue__E.1)
                  000158ac    00000008     (.tramp.ti_sysbios_knl_Queue_empty__E.1)
                  000158b4    00000008     (.tramp.ti_sysbios_knl_Queue_remove__E.1)
                  000158bc    00000008     (.tramp.ti_sysbios_knl_Clock_create.1)
                  000158c4    00000008     (.tramp.ti_sysbios_knl_Clock_Params__init__S.1)
                  000158cc    00000008     (.tramp.macMainSetTaskId.1)
                  000158d4    00000008     (.tramp.ti_sysbios_knl_Task_construct.1)
                  000158dc    00000008     (.tramp.ti_sysbios_knl_Task_Params__init__S.1)
                  000158e4    00000008     (.tramp.MAC_MlmeAssociateRsp.1)
                  000158ec    00000008     (.tramp.xdc_runtime_System_doPrint__I.1)
                  000158f4    00000008     (.tramp.xdc_runtime_Text_putSite__E.1)
                  000158fc    00000008     (.tramp.xdc_runtime_Text_putLab__E.1)
                  00015904    00000008     (.tramp.xdc_runtime_System_vsnprintf__E.1)
                  0001590c    00000008     (.tramp.ti_sysbios_knl_Clock_getTicks__E.1)
                  00015914    00000008     (.tramp.ti_sysbios_knl_Swi_restore__E.1)
                  0001591c    00000008     (.tramp.ti_sysbios_knl_Semaphore_construct.1)
                  00015924    00000008     (.tramp.ti_sysbios_knl_Semaphore_Params__init__S.1)
                  0001592c    00000008     (.tramp.ti_sysbios_knl_Clock_start__E.1)
                  00015934    00000008     (.tramp.ti_sysbios_knl_Clock_setTimeout__E.1)
                  0001593c    00000008     (.tramp.ti_sysbios_knl_Clock_stop__E.1)
                  00015944    00000008     (.tramp.ti_sysbios_knl_Semaphore_post__E.1)
                  0001594c    00000008     (.tramp.strlen.1)

.text.2    0    00056000    00001fa8     
                  00056000    0000080c     maclib_secure_cc13x2.a : mac_rx.obj (.text:macRxFrameIsr)
                  0005680c    00000008     (.tramp.ti_sysbios_family_arm_m3_Hwi_restoreFxn__E.1)
                  00056814    000004a0     main.obj (.text:appTaskFxn)
                  00056cb4    00000008     (.tramp.MAC_MlmeGetReq.1)
                  00056cbc    00000008     (.tramp.ti_sysbios_knl_Semaphore_pend__E.1)
                  00056cc4    0000049a     nvocmp.obj (.text:NVOCMP_initNvApi$24)
                  0005715e    00000002     drivers_cc13x2.aem4f : LED.oem4f (.text:LED_init)
                  00057160    00000494     rf_multiMode_cc13x2.aem4f : RFCC26X2_multiMode.c.cc13x2.ccs.o (.text:RF_fsmActiveState)
                  000575f4    00000444     maclib_secure_cc13x2.a : mac_hl_patch.obj (.text:macWrapperAddDevice)
                  00057a38    00000438     macTask.obj (.text:macTaskFxn$18)
                  00057e70    00000008     (.tramp.xdc_runtime_System_abort__E.1)
                  00057e78    00000008     (.tramp.MAC_Init.1)
                  00057e80    00000008     (.tramp.MAC_InitCoord.1)
                  00057e88    00000008     (.tramp.macExecute.1)
                  00057e90    00000008     (.tramp.ti_sysbios_knl_Clock_delete.1)
                  00057e98    00000008     (.tramp.mac_msg_deallocate.1)
                  00057ea0    00000008     (.tramp.ti_sysbios_knl_Task_enable__E.1)
                  00057ea8    00000008     (.tramp.ti_sysbios_knl_Task_disable__E.1)
                  00057eb0    00000008     (.tramp.macCommStatusInd.1)
                  00057eb8    000000f0     macTask.obj (.text:MAC_CbackEvent)

MODULE SUMMARY

       Module                                   code    ro data   rw data
       ------                                   ----    -------   -------
    .\
       CC1352R1_LAUNCHXL_fxns.obj               216     28        0      
    +--+----------------------------------------+-------+---------+---------+
       Total:                                   216     28        0      
                                                                         
    .\application\
       main.obj                                 1318    8         1712   
    +--+----------------------------------------+-------+---------+---------+
       Total:                                   1318    8         1712   
                                                                         
    .\application\collector\
       csf.obj                                  6412    5         708    
       collector.obj                            3266    0         156    
    +--+----------------------------------------+-------+---------+---------+
       Total:                                   9678    5         864    
                                                                         
    .\application\collector\link_controller\
       cllc.obj                                 1828    154       820    
    +--+----------------------------------------+-------+---------+---------+
       Total:                                   1828    154       820    
                                                                         
    .\application\cui\
       cui.obj                                  2818    4         2425   
    +--+----------------------------------------+-------+---------+---------+
       Total:                                   2818    4         2425   
                                                                         
    .\application\utils\
       util_timer.obj                           104     0         0      
    +--+----------------------------------------+-------+---------+---------+
       Total:                                   104     0         0      
                                                                         
    .\software_stack\ti15_4stack\
       macTask.obj                              1532    19        2244   
    +--+----------------------------------------+-------+---------+---------+
       Total:                                   1532    19        2244   
                                                                         
    .\software_stack\ti15_4stack\hal\appasrt\
       hal_appasrt.obj                          0       0         4      
    +--+----------------------------------------+-------+---------+---------+
       Total:                                   0       0         4      
                                                                         
    .\software_stack\ti15_4stack\mac\high_level\
       mac_cfg.obj                              0       552       176    
    +--+----------------------------------------+-------+---------+---------+
       Total:                                   0       552       176    
                                                                         
    .\software_stack\ti15_4stack\mac\low_level\
       mac_settings.obj                         0       0         408    
    +--+----------------------------------------+-------+---------+---------+
       Total:                                   0       0         408    
                                                                         
    .\software_stack\ti15_4stack\mac\rom\
       hmac_rom_init.obj                        0       1384      0      
       fh_rom_init.obj                          0       600       0      
       lmac_rom_init.obj                        0       204       0      
       icall_osal_rom_init.obj                  0       108       0      
       rom_init_154.obj                         0       0         16     
    +--+----------------------------------------+-------+---------+---------+
       Total:                                   0       2296      16     
                                                                         
    .\software_stack\ti15_4stack\mac_utils\
       mac_util.obj                             94      0         0      
    +--+----------------------------------------+-------+---------+---------+
       Total:                                   94      0         0      
                                                                         
    .\software_stack\ti15_4stack\osal_port\
       osal_port.obj                            1540    0         396    
       osal_port_timers.obj                     0       0         16     
    +--+----------------------------------------+-------+---------+---------+
       Total:                                   1540    0         412    
                                                                         
    .\software_stack\ti15_4stack\radio_configuration\
       mac_user_config.obj                      984     204       0      
    +--+----------------------------------------+-------+---------+---------+
       Total:                                   984     204       0      
                                                                         
    .\software_stack\ti15_4stack\services\
       nvocmp.obj                               6006    0         120    
       crc.obj                                  32      256       0      
       saddr.obj                                112     0         0      
    +--+----------------------------------------+-------+---------+---------+
       Total:                                   6150    256       120    
                                                                         
    .\software_stack\ti15_4stack\stack_user_api\api_mac\
       api_mac.obj                              1736    0         52     
    +--+----------------------------------------+-------+---------+---------+
       Total:                                   1736    0         52     
                                                                         
    .\syscfg\
       ti_drivers_config.obj                    28      213       33360  
       ti_radio_config.obj                      0       172       144    
       ti_devices_config.obj                    0       88        0      
    +--+----------------------------------------+-------+---------+---------+
       Total:                                   28      473       33504  
                                                                         
    C:\Users\gausp\AppData\Local\Temp\
       {EF1C2213-8E34-44F8-ADA3-365B5967F421}   0       392       1113   
    +--+----------------------------------------+-------+---------+---------+
       Total:                                   0       392       1113   
                                                                         
    C:\Users\gausp\workspace_v9_2\collector_CC1352R1_LAUNCHXL_tirtos_ccs_syscfg\Release\configPkg\package\cfg\
       app_pem4f.oem4f                          1040    1473      1798   
    +--+----------------------------------------+-------+---------+---------+
       Total:                                   1040    1473      1798   
                                                                         
    C:/ti/simplelink_cc13x2_26x2_sdk_3_30_00_03/kernel/tirtos/packages/ti/dpl/lib/dpl_cc13x2.aem4f
       PowerCC26X2_tirtos.oem4f                 240     0         8      
       ClockP_tirtos.oem4f                      222     0         4      
       HwiP_tirtos.oem4f                        130     0         0      
       SemaphoreP_tirtos.oem4f                  126     0         0      
       SwiP_tirtos.oem4f                        96      0         0      
    +--+----------------------------------------+-------+---------+---------+
       Total:                                   814     0         12     
                                                                         
    C:/ti/simplelink_cc13x2_26x2_sdk_3_30_00_03/source/ti/devices/cc13x2_cc26x2/driverlib/bin/ccs/driverlib.lib
       osc.obj                                  432     0         28     
       sys_ctrl.obj                             392     0         0      
       setup.obj                                384     0         0      
       chipinfo.obj                             204     0         0      
       flash.obj                                56      0         0      
       cpu.obj                                  30      0         0      
       aux_sysif.obj                            0       8         0      
    +--+----------------------------------------+-------+---------+---------+
       Total:                                   1498    8         28     
                                                                         
    C:/ti/simplelink_cc13x2_26x2_sdk_3_30_00_03/source/ti/drivers/lib/drivers_cc13x2.aem4f
       UARTCC26XX.oem4f                         2742    108       0      
       PowerCC26X2.oem4f                        2218    84        272    
       PINCC26XX.oem4f                          1558    0         276    
       PowerCC26X2_calibrateRCOSC.oem4f         1400    0         0      
       TRNGCC26XX.oem4f                         948     0         98     
       NVSCC26XX.oem4f                          986     40        12     
       GPIOCC26XX.oem4f                         864     64        61     
       Button.oem4f                             788     16        0      
       AESCCMCC26XX.oem4f                       740     0         1      
       LED.oem4f                                700     8         0      
       Random.oem4f                             176     88        20     
       UART.oem4f                               206     36        1      
       List.oem4f                               210     0         0      
       PWM.oem4f                                182     24        1      
       StructRingBuf.oem4f                      194     0         0      
       CryptoResourceCC26XX.oem4f               98      0         86     
       NVS.oem4f                                160     4         1      
       RingBuf.oem4f                            152     0         0      
       AESCCM.oem4f                             40      16        0      
       CryptoUtils.oem4f                        34      0         0      
       TRNG.oem4f                               0       16        0      
       CryptoKeyPlaintextCC26XX.oem4f           14      0         0      
    +--+----------------------------------------+-------+---------+---------+
       Total:                                   14410   504       829    
                                                                         
    C:/ti/simplelink_cc13x2_26x2_sdk_3_30_00_03/source/ti/drivers/rf/lib/rf_multiMode_cc13x2.aem4f
       RFCC26X2_multiMode.c.cc13x2.ccs.o        10062   40        1125   
       rf_patch_cpe_prop.c.cc13x2.ccs.o         98      340       1      
       rfc.c.cc13x2.ccs.o                       302     0         0      
    +--+----------------------------------------+-------+---------+---------+
       Total:                                   10462   380       1126   
                                                                         
    C:/ti/simplelink_cc13x2_26x2_sdk_3_30_00_03/source/ti/ti154stack/library/tirtos/ccs/bin/maclib_secure_cc13x2.a
       mac_hl_patch.obj                         7418    0         12     
       mac_radio_tx.obj                         3804    0         36     
       mac_rx.obj                               3400    8         40     
       mac.obj                                  3236    0         183    
       mac_radio.obj                            2684    0         232    
       mac_tx.obj                               2820    0         37     
       mac_timer.obj                            1468    0         0      
       hmac_global.obj                          0       797       264    
       mac_pwr.obj                              858     0         0      
       mac_autopend.obj                         622     0         4      
       mac_symbol_timer.obj                     560     0         40     
       mac_rx_onoff.obj                         572     0         0      
       mac_mcu.obj                              512     0         0      
       mac_low_level.obj                        420     0         0      
       mac_sleep.obj                            80      0         1      
       fh_ie_patch.obj                          42      0         0      
       lmac_global.obj                          0       0         4      
    +--+----------------------------------------+-------+---------+---------+
       Total:                                   28496   805       853    
                                                                         
    C:\Users\gausp\workspace_v9_2\collector_CC1352R1_LAUNCHXL_tirtos_ccs_syscfg\src\sysbios\rom_sysbios.aem4f
       rom_sysbios.obj                          1633    0         0      
       rom_sysbios_config.obj                   26      0         0      
    +--+----------------------------------------+-------+---------+---------+
       Total:                                   1659    0         0      
                                                                         
    C:\ti\simplelink_cc13x2_26x2_sdk_3_30_00_03\kernel\tirtos\packages\ti\targets\arm\rtsarm\lib\auto_init.aem4f
       auto_init.oem4f                          160     0         0      
    +--+----------------------------------------+-------+---------+---------+
       Total:                                   160     0         0      
                                                                         
    C:\ti\simplelink_cc13x2_26x2_sdk_3_30_00_03\kernel\tirtos\packages\ti\targets\arm\rtsarm\lib\boot.aem4f
       boot.oem4f                               88      0         0      
    +--+----------------------------------------+-------+---------+---------+
       Total:                                   88      0         0      
                                                                         
    C:\ti_ccs_9_2\ccs\tools\compiler\ti-cgt-arm_18.12.3.LTS\lib\rtsv7M4_T_le_v4SPD16_eabi.lib
       strtol.c.obj                             304     0         0      
       ctype.c.obj                              0       257       0      
       memcpy_t2.asm.obj                        156     0         0      
       ull_div_t2.asm.obj                       150     0         0      
       memset_t2.asm.obj                        122     0         0      
       ll_div_t2.asm.obj                        110     0         0      
       copy_decompress_lzss.c.obj               104     0         0      
       atoi.c.obj                               76      0         0      
       cpy_tbl.c.obj                            76      0         0      
       u_divt2.asm.obj                          64      0         0      
       strncpy.c.obj                            52      0         0      
       strncat.c.obj                            38      0         0      
       memcmp.c.obj                             36      0         0      
       _lock.c.obj                              26      0         8      
       args_main.c.obj                          24      0         0      
       ll_mul_t2.asm.obj                        24      0         0      
       copy_decompress_none.c.obj               14      0         0      
       copy_zero_init.c.obj                     12      0         0      
       errno.c.obj                              8       0         4      
       stkdepth_vars.c.obj                      0       0         4      
       div0.asm.obj                             2       0         0      
    +--+----------------------------------------+-------+---------+---------+
       Total:                                   1398    257       16     
                                                                         
       Stack:                                   0       0         1376   
       Linker Generated:                        704     1095      0      
    +--+----------------------------------------+-------+---------+---------+
       Grand Total:                             88755   8913      49908  


LINKER GENERATED COPY TABLES

__TI_cinit_table @ 00015d70 records: 6, size/record: 8, table size: 48
	.data: load addr=00015958, load size=000003e3 bytes, run addr=20000120, run size=00002bf5 bytes, compression=lzss
	.bss: load addr=00015d48, load size=00000008 bytes, run addr=20002d18, run size=000010ab bytes, compression=zero_init
	.data:RAM_MAC_BASE_ADDR: load addr=00015d50, load size=00000008 bytes, run addr=2000010c, run size=00000010 bytes, compression=zero_init
	.data:xdcRomConstPtr: load addr=00015d58, load size=00000008 bytes, run addr=20000100, run size=00000004 bytes, compression=lzss
	.data:xdcRomExternFuncPtr: load addr=00015d60, load size=00000008 bytes, run addr=20000104, run size=00000004 bytes, compression=lzss
	.data:xdcRomStatePtr: load addr=00015d68, load size=00000008 bytes, run addr=20000108, run size=00000004 bytes, compression=lzss


LINKER GENERATED HANDLER TABLE

__TI_handler_table @ 00015d3c records: 3, size/record: 4, table size: 12
	index: 0, handler: __TI_decompress_lzss
	index: 1, handler: __TI_decompress_none
	index: 2, handler: __TI_zero_init


FAR CALL TRAMPOLINES

callee name               trampoline name
   callee addr  tramp addr   call addr  call info
--------------  -----------  ---------  ----------------
ti_sysbios_knl_Swi_destruct  $Tramp$TT$L$PI$$ti_sysbios_knl_Swi_destruct
   1002e8bd     000156f4     000156a0   dpl_cc13x2.aem4f : SwiP_tirtos.oem4f (.text:SwiP_destruct)
ti_sysbios_knl_Semaphore_destruct  $Tramp$TT$L$PI$$ti_sysbios_knl_Semaphore_destruct
   1002e6fd     000156fc     00015698   dpl_cc13x2.aem4f : SemaphoreP_tirtos.oem4f (.text:SemaphoreP_destruct)
ti_sysbios_family_arm_m3_Hwi_setPriority__E  $Tramp$TT$L$PI$$ti_sysbios_family_arm_m3_Hwi_setPriority__E
   1002e919     00015704     0001568c   dpl_cc13x2.aem4f : HwiP_tirtos.oem4f (.text:HwiP_setPriority)
ti_sysbios_family_arm_m3_Hwi_enableInterrupt__E  $Tramp$TT$L$PI$$ti_sysbios_family_arm_m3_Hwi_enableInterrupt__E
   1002d91d     0001570c     00015684   dpl_cc13x2.aem4f : HwiP_tirtos.oem4f (.text:HwiP_enableInterrupt)
ti_sysbios_family_arm_m3_Hwi_destruct  $Tramp$TT$L$PI$$ti_sysbios_family_arm_m3_Hwi_destruct
   1002e475     00015714     0001567c   dpl_cc13x2.aem4f : HwiP_tirtos.oem4f (.text:HwiP_destruct)
ti_sysbios_BIOS_getCpuFreq__E  $Tramp$TT$L$PI$$ti_sysbios_BIOS_getCpuFreq__E
   1002e9fd     0001571c     00015648   dpl_cc13x2.aem4f : ClockP_tirtos.oem4f (.text:ClockP_getCpuFreq)
ti_sysbios_knl_Clock_destruct  $Tramp$TT$L$PI$$ti_sysbios_knl_Clock_destruct
   1002e649     00015724     00015644   dpl_cc13x2.aem4f : ClockP_tirtos.oem4f (.text:ClockP_destruct)
MAC_McpsDataReq           $Tramp$TT$L$PI$$MAC_McpsDataReq
   10036729     0001572c     00014aec   api_mac.obj (.text:ApiMac_mcpsDataReq)
xdc_runtime_Core_assignParams__I  $Tramp$TT$L$PI$$xdc_runtime_Core_assignParams__I
   1002f4c9     00015734     000154b0   app_pem4f.oem4f (.text:ti_sysbios_gates_GateMutexPri_Params__init__S)
ti_sysbios_knl_Semaphore_delete  $Tramp$TT$L$PI$$ti_sysbios_knl_Semaphore_delete
   1002ecdb     0001573c     00015446   dpl_cc13x2.aem4f : SemaphoreP_tirtos.oem4f (.text:SemaphoreP_delete)
MAC_MlmeSetReq            $Tramp$TT$L$PI$$MAC_MlmeSetReq
   10039ec5     00015744     00015314   api_mac.obj (.text:ApiMac_mlmeSetReqBool)
                             00015322   api_mac.obj (.text:ApiMac_mlmeSetReqUint16)
                             00015330   api_mac.obj (.text:ApiMac_mlmeSetReqUint8)
                             0001557c   api_mac.obj (.text:ApiMac_mlmeSetReqArray)
ti_sysbios_knl_Queue_destruct  $Tramp$TT$L$PI$$ti_sysbios_knl_Queue_destruct
   1002e89d     0001574c     00015292   rom_sysbios.aem4f : rom_sysbios.obj (.text:ti_sysbios_gates_GateMutexPri_Instance_finalize__E)
ti_sysbios_knl_Clock_logTick__E  $Tramp$TT$L$PI$$ti_sysbios_knl_Clock_logTick__E
   1002dbd7     00015754     0001512e   app_pem4f.oem4f (.text:ti_sysbios_knl_Clock_doTick__I)
ti_sysbios_knl_Task_blockI__E  $Tramp$TT$L$PI$$ti_sysbios_knl_Task_blockI__E
   1002d7b1     0001575c     00014f2c   rom_sysbios.aem4f : rom_sysbios.obj (.text:ti_sysbios_knl_Task_block__E)
ti_sysbios_knl_Swi_post__E  $Tramp$TT$L$PI$$ti_sysbios_knl_Swi_post__E
   1002d891     00015764     00014e38   rom_sysbios.aem4f : rom_sysbios.obj (.text:ti_sysbios_knl_Swi_or__E)
                             00015136   app_pem4f.oem4f (.text:ti_sysbios_knl_Clock_doTick__I)
ti_sysbios_knl_Queue_construct  $Tramp$TT$L$PI$$ti_sysbios_knl_Queue_construct
   1002dee5     0001576c     00014e04   rom_sysbios.aem4f : rom_sysbios.obj (.text:ti_sysbios_gates_GateMutexPri_Instance_init__E)
ti_sysbios_BIOS_RtsGateProxy_leave__E  $Tramp$TT$L$PI$$ti_sysbios_BIOS_RtsGateProxy_leave__E
   1002ec7b     00015774     00014dea   app_pem4f.oem4f (.text:ti_sysbios_BIOS_rtsUnlock__I)
ti_sysbios_knl_Swi_construct  $Tramp$TT$L$PI$$ti_sysbios_knl_Swi_construct
   1002d719     0001577c     00014a3a   rom_sysbios.aem4f : rom_sysbios.obj (.text:ti_sysbios_knl_Swi_construct2__E)
ti_sysbios_BIOS_RtsGateProxy_enter__E  $Tramp$TT$L$PI$$ti_sysbios_BIOS_RtsGateProxy_enter__E
   1002ec77     00015784     000145de   app_pem4f.oem4f (.text:ti_sysbios_BIOS_rtsLock__I)
ti_sysbios_family_arm_m3_Hwi_disableFxn__E  $Tramp$TT$L$PI$$ti_sysbios_family_arm_m3_Hwi_disableFxn__E
   1002eb55     0001578c     000142e0   dpl_cc13x2.aem4f : HwiP_tirtos.oem4f (.text:HwiP_setFunc)
                             00015212   main.obj (.text:Main_assertHandler)
                             00015680   dpl_cc13x2.aem4f : HwiP_tirtos.oem4f (.text:HwiP_disable)
xdc_runtime_Core_deleteObject__I  $Tramp$TT$L$PI$$xdc_runtime_Core_deleteObject__I
   1002f367     00015794     00014176   app_pem4f.oem4f (.text:ti_sysbios_gates_GateMutexPri_Object__delete__S)
                             0001419a   app_pem4f.oem4f (.text:ti_sysbios_heaps_HeapCallback_Object__delete__S)
ti_sysbios_knl_Clock_TimerProxy_getCurrentTick__E  $Tramp$TT$L$PI$$ti_sysbios_knl_Clock_TimerProxy_getCurrentTick__E
   1002eac5     0001579c     00013bc6   rom_sysbios.aem4f : rom_sysbios.obj (.text:ti_sysbios_knl_Clock_getTicksUntilInterrupt__E)
ti_sysbios_knl_Semaphore_create  $Tramp$TT$L$PI$$ti_sysbios_knl_Semaphore_create
   1002dc49     000157a4     000139f0   dpl_cc13x2.aem4f : SemaphoreP_tirtos.oem4f (.text:SemaphoreP_createBinary)
xdc_runtime_Memory_alloc__E  $Tramp$TT$L$PI$$xdc_runtime_Memory_alloc__E
   1002f289     000157ac     00013886   app_pem4f.oem4f (.text:ti_sysbios_rts_MemAlloc_alloc)
xdc_runtime_Core_createObject__I  $Tramp$TT$L$PI$$xdc_runtime_Core_createObject__I
   1002f2f9     000157b4     00013738   app_pem4f.oem4f (.text:ti_sysbios_gates_GateMutexPri_Object__create__S)
                             00013768   app_pem4f.oem4f (.text:ti_sysbios_gates_GateMutexPri_create)
                             00013798   app_pem4f.oem4f (.text:ti_sysbios_heaps_HeapCallback_Object__create__S)
ti_sysbios_knl_Task_startup__E  $Tramp$TT$L$PI$$ti_sysbios_knl_Task_startup__E
   1002eceb     000157bc     000136e8   app_pem4f.oem4f (.text:ti_sysbios_BIOS_startFunc__I)
ti_sysbios_knl_Swi_startup__E  $Tramp$TT$L$PI$$ti_sysbios_knl_Swi_startup__E
   1002ec6b     000157c4     000136e4   app_pem4f.oem4f (.text:ti_sysbios_BIOS_startFunc__I)
ti_sysbios_hal_Hwi_startup__E  $Tramp$TT$L$PI$$ti_sysbios_hal_Hwi_startup__E
   1002ec31     000157cc     000136e0   app_pem4f.oem4f (.text:ti_sysbios_BIOS_startFunc__I)
ti_sysbios_family_arm_cc26xx_Timer_startup__E  $Tramp$TT$L$PI$$ti_sysbios_family_arm_cc26xx_Timer_startup__E
   1002dcf1     000157d4     000136dc   app_pem4f.oem4f (.text:ti_sysbios_BIOS_startFunc__I)
xdc_runtime_System_atexit__E  $Tramp$TT$L$PI$$xdc_runtime_System_atexit__E
   1002f559     000157dc     000136d4   app_pem4f.oem4f (.text:ti_sysbios_BIOS_startFunc__I)
ti_sysbios_BIOS_linkedWithIncorrectBootLibrary__E  $Tramp$TT$L$PI$$ti_sysbios_BIOS_linkedWithIncorrectBootLibrary__E
   1002d01b     000157e4     000136ce   app_pem4f.oem4f (.text:ti_sysbios_BIOS_startFunc__I)
ti_sysbios_BIOS_setThreadType__E  $Tramp$TT$L$PI$$ti_sysbios_BIOS_setThreadType__E
   1002ea11     000157ec     000136a0   app_pem4f.oem4f (.text:ti_sysbios_BIOS_atExitFunc__I)
                             00014efe   app_pem4f.oem4f (.text:ti_sysbios_BIOS_exitFunc__I)
ti_sysbios_knl_Swi_disable__E  $Tramp$TT$L$PI$$ti_sysbios_knl_Swi_disable__E
   1002ea25     000157f4     00013696   app_pem4f.oem4f (.text:ti_sysbios_BIOS_atExitFunc__I)
                             00014846   dpl_cc13x2.aem4f : PowerCC26X2_tirtos.oem4f (.text:PowerCC26XX_schedulerDisable)
                             000156a4                    : SwiP_tirtos.oem4f (.text:SwiP_disable)
ti_sysbios_knl_Queue_next__E  $Tramp$TT$L$PI$$ti_sysbios_knl_Queue_next__E
   1002ecd7     000157fc     000133a0   rom_sysbios.aem4f : rom_sysbios.obj (.text:ti_sysbios_gates_GateMutexPri_insertPri__I)
ti_sysbios_knl_Queue_head__E  $Tramp$TT$L$PI$$ti_sysbios_knl_Queue_head__E
   1002ecd3     00015804     00013396   rom_sysbios.aem4f : rom_sysbios.obj (.text:ti_sysbios_gates_GateMutexPri_insertPri__I)
ti_sysbios_knl_Queue_Object__get__S  $Tramp$TT$L$PI$$ti_sysbios_knl_Queue_Object__get__S
   1002e87d     0001580c     0001334e   rom_sysbios.aem4f : rom_sysbios.obj (.text:ti_sysbios_knl_Swi_setPri__E)
ti_sysbios_family_arm_m3_Hwi_construct  $Tramp$TT$L$PI$$ti_sysbios_family_arm_m3_Hwi_construct
   1002d421     00015814     00012a56   rom_sysbios.aem4f : rom_sysbios.obj (.text:ti_sysbios_family_arm_m3_Hwi_construct2__E)
ti_sysbios_knl_Swi_Params__init__S  $Tramp$TT$L$PI$$ti_sysbios_knl_Swi_Params__init__S
   1002ebf1     0001581c     0001292a   dpl_cc13x2.aem4f : SwiP_tirtos.oem4f (.text:SwiP_construct)
ti_sysbios_family_arm_m3_Hwi_Params__init__S  $Tramp$TT$L$PI$$ti_sysbios_family_arm_m3_Hwi_Params__init__S
   1002eb49     00015824     000126cc   dpl_cc13x2.aem4f : HwiP_tirtos.oem4f (.text:HwiP_construct)
xdc_runtime_Startup_rtsDone__E  $Tramp$TT$L$PI$$xdc_runtime_Startup_rtsDone__E
   1002f8e5     0001582c     00012672   rom_sysbios.aem4f : rom_sysbios.obj (.text:ti_sysbios_heaps_HeapCallback_Module_startup__E)
                             000136c6   app_pem4f.oem4f (.text:ti_sysbios_BIOS_startFunc__I)
MAC_MlmeDisassociateReq   $Tramp$TT$L$PI$$MAC_MlmeDisassociateReq
   10039dc1     00015834     00011f76   cllc.obj (.text:Cllc_sendDisassociationRequest)
ti_sysbios_knl_Clock_construct  $Tramp$TT$L$PI$$ti_sysbios_knl_Clock_construct
   1002dd8d     0001583c     0001123e   dpl_cc13x2.aem4f : ClockP_tirtos.oem4f (.text:ClockP_construct)
                             00011c1e   util_timer.obj (.text:Timer_construct)
xdc_runtime_System_exit__E  $Tramp$TT$L$PI$$xdc_runtime_System_exit__E
   1002f7b1     00015844     00010cfc   boot.aem4f : boot.oem4f (.text)
                             00014f04   app_pem4f.oem4f (.text:ti_sysbios_BIOS_exitFunc__I)
MAC_MlmeScanReq           $Tramp$TT$L$PI$$MAC_MlmeScanReq
   1003a689     0001584c     00010706   cllc.obj (.text:sendScanReq$5)
ti_sysbios_BIOS_start__E  $Tramp$TT$L$PI$$ti_sysbios_BIOS_start__E
   1002eaa5     00015854     000101ba   main.obj (.text:main)
MAC_MlmeOrphanRsp         $Tramp$TT$L$PI$$MAC_MlmeOrphanRsp
   1003648d     0001585c     0000fbd4   cllc.obj (.text:orphanIndCb$5)
MAC_MlmeStartReq          $Tramp$TT$L$PI$$MAC_MlmeStartReq
   100364e1     00015864     0000f53c   cllc.obj (.text:sendStartReq$5)
ti_sysbios_knl_Task_unblockI__E  $Tramp$TT$L$PI$$ti_sysbios_knl_Task_unblockI__E
   1002dcb9     0001586c     0000f1a8   rom_sysbios.aem4f : rom_sysbios.obj (.text:ti_sysbios_gates_GateMutexPri_leave__E)
ti_sysbios_knl_Queue_dequeue__E  $Tramp$TT$L$PI$$ti_sysbios_knl_Queue_dequeue__E
   1002ebcd     00015874     0000f18a   rom_sysbios.aem4f : rom_sysbios.obj (.text:ti_sysbios_gates_GateMutexPri_leave__E)
MAC_MlmeSetSecurityReq    $Tramp$TT$L$PI$$MAC_MlmeSetSecurityReq
   1003a99d     0001587c     0000ecfc   cllc.obj (.text:Cllc_securityInit)
                             0000ed10   cllc.obj (.text:Cllc_securityInit)
                             0001563c   api_mac.obj (.text:ApiMac_mlmeSetSecurityReqStruct)
MAC_MlmeResetReq          $Tramp$TT$L$PI$$MAC_MlmeResetReq
   100391c9     00015884     0000e5ba   api_mac.obj (.text:ApiMac_init)
ti_sysbios_knl_Task_sleep__E  $Tramp$TT$L$PI$$ti_sysbios_knl_Task_sleep__E
   1002ce01     0001588c     0000e1ee   cui.obj (.text:CUI_writeString$6)
ti_sysbios_knl_Task_self__E  $Tramp$TT$L$PI$$ti_sysbios_knl_Task_self__E
   1002eaf5     00015894     0000dc76   rom_sysbios.aem4f : rom_sysbios.obj (.text:ti_sysbios_gates_GateMutexPri_enter__E)
                             0000e584   api_mac.obj (.text:ApiMac_init)
                             0000f15a   rom_sysbios.aem4f : rom_sysbios.obj (.text:ti_sysbios_gates_GateMutexPri_leave__E)
                             0000fe22   osal_port.obj (.text:OsalPort_clearEvent)
ti_sysbios_knl_Task_restore__E  $Tramp$TT$L$PI$$ti_sysbios_knl_Task_restore__E
   1002df45     0001589c     0000cc92   rom_sysbios.aem4f : rom_sysbios.obj (.text:ti_sysbios_knl_Task_setPri__E)
                             0000dc9a                     : rom_sysbios.obj (.text:ti_sysbios_gates_GateMutexPri_enter__E)
                             0000dca8                     : rom_sysbios.obj (.text:ti_sysbios_gates_GateMutexPri_enter__E)
                             0000dcde                     : rom_sysbios.obj (.text:ti_sysbios_gates_GateMutexPri_enter__E)
                             0000f1b8                     : rom_sysbios.obj (.text:ti_sysbios_gates_GateMutexPri_leave__E)
                             00014866   dpl_cc13x2.aem4f : PowerCC26X2_tirtos.oem4f (.text:PowerCC26XX_schedulerRestore)
                             00014eac   osal_port.obj (.text:OsalPort_leaveCS)
ti_sysbios_knl_Queue_enqueue__E  $Tramp$TT$L$PI$$ti_sysbios_knl_Queue_enqueue__E
   1002ebd9     000158a4     0000cc64   rom_sysbios.aem4f : rom_sysbios.obj (.text:ti_sysbios_knl_Task_setPri__E)
                             000133be                     : rom_sysbios.obj (.text:ti_sysbios_gates_GateMutexPri_insertPri__I)
ti_sysbios_knl_Queue_empty__E  $Tramp$TT$L$PI$$ti_sysbios_knl_Queue_empty__E
   1002eb21     000158ac     0000cc4c   rom_sysbios.aem4f : rom_sysbios.obj (.text:ti_sysbios_knl_Task_setPri__E)
                             0000f182                     : rom_sysbios.obj (.text:ti_sysbios_gates_GateMutexPri_leave__E)
ti_sysbios_knl_Queue_remove__E  $Tramp$TT$L$PI$$ti_sysbios_knl_Queue_remove__E
   1002eb2f     000158b4     0000cc46   rom_sysbios.aem4f : rom_sysbios.obj (.text:ti_sysbios_knl_Task_setPri__E)
ti_sysbios_knl_Clock_create  $Tramp$TT$L$PI$$ti_sysbios_knl_Clock_create
   1002db25     000158bc     0000c68a   maclib_secure_cc13x2.a : mac_symbol_timer.obj (.text:macSymbolTimerInit)
                             0000db00   osal_port.obj (.text:OsalPort_setTimer)
                             0001128c   dpl_cc13x2.aem4f : ClockP_tirtos.oem4f (.text:ClockP_create)
ti_sysbios_knl_Clock_Params__init__S  $Tramp$TT$L$PI$$ti_sysbios_knl_Clock_Params__init__S
   1002eb9d     000158c4     0000c678   maclib_secure_cc13x2.a : mac_symbol_timer.obj (.text:macSymbolTimerInit)
                             0000daec   osal_port.obj (.text:OsalPort_setTimer)
                             00011224   dpl_cc13x2.aem4f : ClockP_tirtos.oem4f (.text:ClockP_construct)
                             00011272                    : ClockP_tirtos.oem4f (.text:ClockP_create)
                             00011bf8   util_timer.obj (.text:Timer_construct)
macMainSetTaskId          $Tramp$TT$L$PI$$macMainSetTaskId
   100388e1     000158cc     0000c426   macTask.obj (.text:macTaskInit)
ti_sysbios_knl_Task_construct  $Tramp$TT$L$PI$$ti_sysbios_knl_Task_construct
   1002d5d9     000158d4     0000c400   macTask.obj (.text:macTaskInit)
                             000101b6   main.obj (.text:main)
ti_sysbios_knl_Task_Params__init__S  $Tramp$TT$L$PI$$ti_sysbios_knl_Task_Params__init__S
   1002ec09     000158dc     0000c3da   macTask.obj (.text:macTaskInit)
                             00010198   main.obj (.text:main)
MAC_MlmeAssociateRsp      $Tramp$TT$L$PI$$MAC_MlmeAssociateRsp
   10036471     000158e4     0000c234   cllc.obj (.text:assocIndCb$5)
xdc_runtime_System_doPrint__I  $Tramp$TT$L$PI$$xdc_runtime_System_doPrint__I
   1002ecf1     000158ec     0000a05e   app_pem4f.oem4f (.text:xdc_runtime_System_printfExtend__I)
xdc_runtime_Text_putSite__E  $Tramp$TT$L$PI$$xdc_runtime_Text_putSite__E
   1002f15d     000158f4     0000a02c   app_pem4f.oem4f (.text:xdc_runtime_System_printfExtend__I)
xdc_runtime_Text_putLab__E  $Tramp$TT$L$PI$$xdc_runtime_Text_putLab__E
   1002f3c5     000158fc     00009ff2   app_pem4f.oem4f (.text:xdc_runtime_System_printfExtend__I)
xdc_runtime_System_vsnprintf__E  $Tramp$TT$L$PI$$xdc_runtime_System_vsnprintf__E
   1002f8b9     00015904     00008772   cui.obj (.text:CUI_statusLinePrintf)
                             000156f0   rom_sysbios.aem4f : rom_sysbios.obj (.text:xdc_runtime_System_snprintf_va__F)
ti_sysbios_knl_Clock_getTicks__E  $Tramp$TT$L$PI$$ti_sysbios_knl_Clock_getTicks__E
   1002dc11     0001590c     00007196   drivers_cc13x2.aem4f : Button.oem4f (.text:Button_clockTimeoutHandler)
                             00013c72   rom_sysbios.aem4f : rom_sysbios.obj (.text:ti_sysbios_knl_Clock_getTimeout__E)
                             00015144   drivers_cc13x2.aem4f : Button.oem4f (.text:timediff)
ti_sysbios_knl_Swi_restore__E  $Tramp$TT$L$PI$$ti_sysbios_knl_Swi_restore__E
   1002db61     00015914     00006124   drivers_cc13x2.aem4f : PowerCC26X2.oem4f (.text:Power_sleep)
                             0000b370   rf_multiMode_cc13x2.aem4f : RFCC26X2_multiMode.c.cc13x2.ccs.o (.text:RF_pendCmd)
                             0000b3a2                             : RFCC26X2_multiMode.c.cc13x2.ccs.o (.text:RF_pendCmd)
                             0000b3f2                             : RFCC26X2_multiMode.c.cc13x2.ccs.o (.text:RF_pendCmd)
                             0001485e   dpl_cc13x2.aem4f : PowerCC26X2_tirtos.oem4f (.text:PowerCC26XX_schedulerRestore)
ti_sysbios_knl_Semaphore_construct  $Tramp$TT$L$PI$$ti_sysbios_knl_Semaphore_construct
   1002ddc1     0001591c     00004af8   cui.obj (.text:CUI_init)
                             00004bd4   cui.obj (.text:CUI_init)
                             00004be4   cui.obj (.text:CUI_init)
                             00004ca4   cui.obj (.text:CUI_init)
                             0000c3c8   macTask.obj (.text:macTaskInit)
                             0000e57e   api_mac.obj (.text:ApiMac_init)
                             000139c6   dpl_cc13x2.aem4f : SemaphoreP_tirtos.oem4f (.text:SemaphoreP_constructBinary)
ti_sysbios_knl_Semaphore_Params__init__S  $Tramp$TT$L$PI$$ti_sysbios_knl_Semaphore_Params__init__S
   1002ebe5     00015924     00004ae2   cui.obj (.text:CUI_init)
                             0000c3b2   macTask.obj (.text:macTaskInit)
                             0000e56a   api_mac.obj (.text:ApiMac_init)
                             000139b6   dpl_cc13x2.aem4f : SemaphoreP_tirtos.oem4f (.text:SemaphoreP_constructBinary)
                             000139e0                    : SemaphoreP_tirtos.oem4f (.text:SemaphoreP_createBinary)
ti_sysbios_knl_Clock_start__E  $Tramp$TT$L$PI$$ti_sysbios_knl_Clock_start__E
   1002e9e7     0001592c     000044d4   maclib_secure_cc13x2.a : mac_pwr.obj (.text:macPwrVote)
                             0000bf22   dpl_cc13x2.aem4f : PowerCC26X2_tirtos.oem4f (.text:PowerCC26XX_standbyPolicy)
                             0000c6ca   maclib_secure_cc13x2.a : mac_symbol_timer.obj (.text:macSymbolTimerInit)
                             0000db3a   osal_port.obj (.text:OsalPort_setTimer)
                             00015654   dpl_cc13x2.aem4f : ClockP_tirtos.oem4f (.text:ClockP_start)
                             000156b4   util_timer.obj (.text:Timer_start)
ti_sysbios_knl_Clock_setTimeout__E  $Tramp$TT$L$PI$$ti_sysbios_knl_Clock_setTimeout__E
   1002ecc3     00015934     000044ce   maclib_secure_cc13x2.a : mac_pwr.obj (.text:macPwrVote)
                             0000bf1c   dpl_cc13x2.aem4f : PowerCC26X2_tirtos.oem4f (.text:PowerCC26XX_standbyPolicy)
                             0000c6c4   maclib_secure_cc13x2.a : mac_symbol_timer.obj (.text:macSymbolTimerInit)
                             0000db34   osal_port.obj (.text:OsalPort_setTimer)
                             0001559c   util_timer.obj (.text:Timer_setTimeout)
                             00015650   dpl_cc13x2.aem4f : ClockP_tirtos.oem4f (.text:ClockP_setTimeout)
ti_sysbios_knl_Clock_stop__E  $Tramp$TT$L$PI$$ti_sysbios_knl_Clock_stop__E
   1002e2c5     0001593c     000044c0   maclib_secure_cc13x2.a : mac_pwr.obj (.text:macPwrVote)
                             000096b6                          : mac_hl_patch.obj (.text:macEdScanISR)
                             0000bf2e   dpl_cc13x2.aem4f : PowerCC26X2_tirtos.oem4f (.text:PowerCC26XX_standbyPolicy)
                             0000c6ac   maclib_secure_cc13x2.a : mac_symbol_timer.obj (.text:macSymbolTimerInit)
                             0000db26   osal_port.obj (.text:OsalPort_setTimer)
                             0001540a   osal_port.obj (.text:OsalPort_stopTimer)
                             00015658   dpl_cc13x2.aem4f : ClockP_tirtos.oem4f (.text:ClockP_stop)
                             000156b8   util_timer.obj (.text:Timer_stop)
ti_sysbios_knl_Semaphore_post__E  $Tramp$TT$L$PI$$ti_sysbios_knl_Semaphore_post__E
   1002cd21     00015944     00001ee4   csf.obj (.text:Csf_init)
                             0000215a   csf.obj (.text:Csf_init)
                             000087be   cui.obj (.text:CUI_statusLinePrintf)
                             00009f1a   csf.obj (.text:sensorSetReportInterval$4)
                             0000a324   cui.obj (.text:CUI_statusLineResourceRequest)
                             0000e22c   cui.obj (.text:CUI_writeString$6)
                             0001080a   osal_port.obj (.text:OsalPort_setEvent)
                             00014508   csf.obj (.text:processBroadcastTimeoutCallback$4)
                             00014528   csf.obj (.text:processConfigTimeoutCallback$4)
                             00014548   csf.obj (.text:processJoinTimeoutCallback$4)
                             0001456e   csf.obj (.text:processKeyChangeCallback$4)
                             00014588   csf.obj (.text:processTrackingTimeoutCallback$4)
                             000149f4   csf.obj (.text:sensorDeviceTypeRequestAction$4)
                             00014a10   csf.obj (.text:sensorDisassocAction$4)
                             00014a2c   csf.obj (.text:sensorLedToggleAction$4)
                             00014c3a   csf.obj (.text:closeNwkAction$4)
                             00014c80   csf.obj (.text:formNwkAction$4)
                             00014d8a   csf.obj (.text:openNwkAction$4)
                             00014da4   csf.obj (.text:processMenuUpdate$4)
                             0001569c   dpl_cc13x2.aem4f : SemaphoreP_tirtos.oem4f (.text:SemaphoreP_post)
strlen                    $Tramp$TT$L$PI$$strlen
   1002fddb     0001594c     00001e84   csf.obj (.text:Csf_init)
                             00004c52   cui.obj (.text:CUI_init)
                             00007ade   cui.obj (.text:CUI_dispMenu$6)
                             00008764   cui.obj (.text:CUI_statusLinePrintf)
                             000087a0   cui.obj (.text:CUI_statusLinePrintf)
                             000119c4   cui.obj (.text:CUI_updateCursor$6)
                             000142c0   cui.obj (.text:CUI_updateRemLen$6)
ti_sysbios_family_arm_m3_Hwi_restoreFxn__E  $Tramp$TT$L$PI$$ti_sysbios_family_arm_m3_Hwi_restoreFxn__E
   1002ec47     0005680c     000561c6   maclib_secure_cc13x2.a : mac_rx.obj (.text:macRxFrameIsr)
                             000561d8                          : mac_rx.obj (.text:macRxFrameIsr)
                             000567f4                          : mac_rx.obj (.text:macRxFrameIsr)
                             00057210   rf_multiMode_cc13x2.aem4f : RFCC26X2_multiMode.c.cc13x2.ccs.o (.text:RF_fsmActiveState)
                             0005730e                             : RFCC26X2_multiMode.c.cc13x2.ccs.o (.text:RF_fsmActiveState)
                             000573a4                             : RFCC26X2_multiMode.c.cc13x2.ccs.o (.text:RF_fsmActiveState)
                             00057494                             : RFCC26X2_multiMode.c.cc13x2.ccs.o (.text:RF_fsmActiveState)
                             00057514                             : RFCC26X2_multiMode.c.cc13x2.ccs.o (.text:RF_fsmActiveState)
                             0005759c                             : RFCC26X2_multiMode.c.cc13x2.ccs.o (.text:RF_fsmActiveState)
                             000575c4                             : RFCC26X2_multiMode.c.cc13x2.ccs.o (.text:RF_fsmActiveState)
                             00057828   maclib_secure_cc13x2.a : mac_hl_patch.obj (.text:macWrapperAddDevice)
                             000578ee                          : mac_hl_patch.obj (.text:macWrapperAddDevice)
                             000579c2                          : mac_hl_patch.obj (.text:macWrapperAddDevice)
                             000579d4                          : mac_hl_patch.obj (.text:macWrapperAddDevice)
                             00057a18                          : mac_hl_patch.obj (.text:macWrapperAddDevice)
                             00057a24                          : mac_hl_patch.obj (.text:macWrapperAddDevice)
                             00057ae0   macTask.obj (.text:macTaskFxn$18)
                             00057c74   macTask.obj (.text:macTaskFxn$18)
                             00057ce8   macTask.obj (.text:macTaskFxn$18)
                             00057cfe   macTask.obj (.text:macTaskFxn$18)
                             00057d1e   macTask.obj (.text:macTaskFxn$18)
                             00057de2   macTask.obj (.text:macTaskFxn$18)
                             00003386   maclib_secure_cc13x2.a : mac_radio_tx.obj (.text:macRadioTxGoSubG$38)
                             0000338e                          : mac_radio_tx.obj (.text:macRadioTxGoSubG$38)
                             0000412c                          : mac_tx.obj (.text:macTxFrame)
                             0000413a                          : mac_tx.obj (.text:macTxFrame)
                             000045aa                          : mac_pwr.obj (.text:macPwrVote)
                             000045c0                          : mac_pwr.obj (.text:macPwrVote)
                             00005316   rf_multiMode_cc13x2.aem4f : RFCC26X2_multiMode.c.cc13x2.ccs.o (.text:RF_scheduleCmd)
                             00005376                             : RFCC26X2_multiMode.c.cc13x2.ccs.o (.text:RF_open)
                             0000546c                             : RFCC26X2_multiMode.c.cc13x2.ccs.o (.text:RF_open)
                             000056fe   maclib_secure_cc13x2.a : mac_hl_patch.obj (.text:macWrapperAddKeyInitFCtr)
                             000058a8                          : mac.obj (.text:macSendReceiveCmdIeee)
                             000062fa                          : mac_hl_patch.obj (.text:macWrapperDeleteKeyAndAssociatedDevices)
                             0000655e                          : mac_hl_patch.obj (.text:macWrapperDeleteDevice)
                             0000662a                          : mac_hl_patch.obj (.text:macWrapperDeleteDevice)
                             00006f58                          : mac_radio_tx.obj (.text:macRadioTxGoIeee$38)
                             00006f60                          : mac_radio_tx.obj (.text:macRadioTxGoIeee$38)
                             00006fd6                          : mac_tx.obj (.text:txCsmaDelay)
                             00006fe2                          : mac_tx.obj (.text:txCsmaDelay)
                             00007058                          : mac_tx.obj (.text:txCsmaDelay)
                             000070b6                          : mac_tx.obj (.text:txCsmaDelay)
                             000070d0                          : mac_tx.obj (.text:txCsmaDelay)
                             000073da                          : mac_radio_tx.obj (.text:macRadioTxAck$38)
                             0000771a   drivers_cc13x2.aem4f : UARTCC26XX.oem4f (.text:UARTCC26XX_open)
                             00007726                        : UARTCC26XX.oem4f (.text:UARTCC26XX_open)
                             000077b0                        : UARTCC26XX.oem4f (.text:UARTCC26XX_open)
                             000079b4   maclib_secure_cc13x2.a : mac_hl_patch.obj (.text:macWrapperDeleteAllDevices)
                             000082b8                          : mac.obj (.text:macSendReceiveCmdSubG)
                             00008912   rf_multiMode_cc13x2.aem4f : RFCC26X2_multiMode.c.cc13x2.ccs.o (.text:RF_ratSetupChannel)
                             0000896c   drivers_cc13x2.aem4f : UARTCC26XX.oem4f (.text:UARTCC26XX_read)
                             000089c8                        : UARTCC26XX.oem4f (.text:UARTCC26XX_read)
                             000089f0                        : UARTCC26XX.oem4f (.text:UARTCC26XX_read)
                             00008a02                        : UARTCC26XX.oem4f (.text:UARTCC26XX_read)
                             00008a4c                        : UARTCC26XX.oem4f (.text:UARTCC26XX_read)
                             00008a5c                        : UARTCC26XX.oem4f (.text:UARTCC26XX_read)
                             00008b3e                        : NVSCC26XX.oem4f (.text:NVSCC26XX_write)
                             00008df0   rf_multiMode_cc13x2.aem4f : RFCC26X2_multiMode.c.cc13x2.ccs.o (.text:RF_abortCmd)
                             0000936c                             : RFCC26X2_multiMode.c.cc13x2.ccs.o (.text:RF_radioOpDoneCb)
                             000095f0   maclib_secure_cc13x2.a : mac.obj (.text:macSetupRATChanCompare)
                             00009ad6   drivers_cc13x2.aem4f : GPIOCC26XX.oem4f (.text:GPIO_setConfig)
                             00009b06                        : GPIOCC26XX.oem4f (.text:GPIO_setConfig)
                             00009d0c   rf_multiMode_cc13x2.aem4f : RFCC26X2_multiMode.c.cc13x2.ccs.o (.text:RF_close)
                             00009d76                             : RFCC26X2_multiMode.c.cc13x2.ccs.o (.text:RF_close)
                             0000a676   drivers_cc13x2.aem4f : PINCC26XX.oem4f (.text:PINCC26XX_setIoCfg)
                             0000ab20   maclib_secure_cc13x2.a : mac_radio.obj (.text:macRadioPowerUp)
                             0000ae84                          : mac_rx.obj (.text:rxPostRxUpdates$39)
                             0000aebe                          : mac_rx.obj (.text:rxPostRxUpdates$39)
                             0000af18   drivers_cc13x2.aem4f : UARTCC26XX.oem4f (.text:UARTCC26XX_write)
                             0000af3a                        : UARTCC26XX.oem4f (.text:UARTCC26XX_write)
                             0000af90                        : UARTCC26XX.oem4f (.text:UARTCC26XX_write)
                             0000b12c   maclib_secure_cc13x2.a : mac.obj (.text:macSendFsCmd)
                             0000b15a                          : mac.obj (.text:macSendFsCmd)
                             0000b532   rf_multiMode_cc13x2.aem4f : RFCC26X2_multiMode.c.cc13x2.ccs.o (.text:RF_swiHw)
                             0000b66a                             : RFCC26X2_multiMode.c.cc13x2.ccs.o (.text:RF_control)
                             0000b8c0   drivers_cc13x2.aem4f : PowerCC26X2.oem4f (.text:Power_releaseDependency)
                             0000b8f6                        : GPIOCC26XX.oem4f (.text:GPIO_init)
                             0000b8fc                        : GPIOCC26XX.oem4f (.text:GPIO_init)
                             0000ba48                        : PowerCC26X2.oem4f (.text:Power_setDependency)
                             0000be84   maclib_secure_cc13x2.a : mac_pwr.obj (.text:MAC_PwrOffReq)
                             0000bea2                          : mac_pwr.obj (.text:MAC_PwrOffReq)
                             0000c016   drivers_cc13x2.aem4f : TRNGCC26XX.oem4f (.text:TRNG_generateEntropy)
                             0000c826   rf_multiMode_cc13x2.aem4f : RFCC26X2_multiMode.c.cc13x2.ccs.o (.text:RF_requestAccess)
                             0000c904   maclib_secure_cc13x2.a : mac_radio.obj (.text:macRadioUpdateTxPower)
                             0000c96a                          : mac_radio.obj (.text:macRadioUpdateTxPower)
                             0000d170                          : mac_timer.obj (.text:macTimerRealign)
                             0000d234   drivers_cc13x2.aem4f : UARTCC26XX.oem4f (.text:writeTxFifoFlush)
                             0000d464   rf_multiMode_cc13x2.aem4f : RFCC26X2_multiMode.c.cc13x2.ccs.o (.text:RF_getInfo)
                             0000d4e6   drivers_cc13x2.aem4f : TRNGCC26XX.oem4f (.text:TRNGCC26XX_hwiFxn)
                             0000d5de   maclib_secure_cc13x2.a : mac_radio.obj (.text:macRadioUpdateChannel)
                             0000d5e6                          : mac_radio.obj (.text:macRadioUpdateChannel)
                             0000d674                          : mac_radio.obj (.text:macRadioUpdateChannelRx)
                             0000d67a                          : mac_radio.obj (.text:macRadioUpdateChannelRx)
                             0000d730                          : mac.obj (.text:macRatCb_A)
                             0000d814   drivers_cc13x2.aem4f : UARTCC26XX.oem4f (.text:UARTCC26XX_writeCancel)
                             0000d82a                        : UARTCC26XX.oem4f (.text:UARTCC26XX_writeCancel)
                             0000d85e                        : UARTCC26XX.oem4f (.text:UARTCC26XX_writeCancel)
                             0000da20   maclib_secure_cc13x2.a : mac_hl_patch.obj (.text:macCcmDecrypt)
                             0000dc50                          : mac_hl_patch.obj (.text:macCcmEncrypt)
                             0000e1d6   cui.obj (.text:CUI_writeString$6)
                             0000e1fa   cui.obj (.text:CUI_writeString$6)
                             0000e218   cui.obj (.text:CUI_writeString$6)
                             0000e320   rf_multiMode_cc13x2.aem4f : RFCC26X2_multiMode.c.cc13x2.ccs.o (.text:RF_issueRadioFreeCb)
                             0000e338                             : RFCC26X2_multiMode.c.cc13x2.ccs.o (.text:RF_issueRadioFreeCb)
                             0000e4b2   maclib_secure_cc13x2.a : mac_rx_onoff.obj (.text:macRxOffRequest)
                             0000ea3c   rf_multiMode_cc13x2.aem4f : RFCC26X2_multiMode.c.cc13x2.ccs.o (.text:RF_ratFreeChannel)
                             0000eb5a   maclib_secure_cc13x2.a : mac_rx_onoff.obj (.text:macRxOn)
                             0000eb74                          : mac_rx_onoff.obj (.text:macRxOn)
                             0000eb9a                          : mac_rx_onoff.obj (.text:macRxOn)
                             0000f028   rf_multiMode_cc13x2.aem4f : RFCC26X2_multiMode.c.cc13x2.ccs.o (.text:RF_yield)
                             0000f05c                             : RFCC26X2_multiMode.c.cc13x2.ccs.o (.text:RF_yield)
                             0000f084   drivers_cc13x2.aem4f : TRNGCC26XX.oem4f (.text:TRNG_construct)
                             0000f092                        : TRNGCC26XX.oem4f (.text:TRNG_construct)
                             0000f7cc   rf_multiMode_cc13x2.aem4f : RFCC26X2_multiMode.c.cc13x2.ccs.o (.text:RF_ratDisableChannel)
                             0000f868   maclib_secure_cc13x2.a : mac_tx.obj (.text:macTxDoneCallback)
                             0000f892                          : mac_tx.obj (.text:macTxDoneCallback)
                             0000f89e                          : mac_tx.obj (.text:macTxDoneCallback)
                             0000f992   rf_multiMode_cc13x2.aem4f : RFCC26X2_multiMode.c.cc13x2.ccs.o (.text:RF_getCurrentTime)
                             0000f9ce                             : RFCC26X2_multiMode.c.cc13x2.ccs.o (.text:RF_getCurrentTime)
                             0000fae2   maclib_secure_cc13x2.a : mac_rx.obj (.text:macRxHaltCleanup)
                             0000ff02   rf_multiMode_cc13x2.aem4f : RFCC26X2_multiMode.c.cc13x2.ccs.o (.text:RF_dispatchNextEvent)
                             0000ff5a   drivers_cc13x2.aem4f : UARTCC26XX.oem4f (.text:UARTCC26XX_control)
                             00010160   maclib_secure_cc13x2.a : mac_timer.obj (.text:macTimerAddTimer)
                             00010246   drivers_cc13x2.aem4f : AESCCMCC26XX.oem4f (.text:AESCCM_hwiFxn)
                             00010282                        : AESCCMCC26XX.oem4f (.text:AESCCM_hwiFxn)
                             000102d8                        : CryptoResourceCC26XX.oem4f (.text:CryptoResourceCC26XX_constructRTOSObjects)
                             00010346                        : GPIOCC26XX.oem4f (.text:GPIO_write)
                             00010528   maclib_secure_cc13x2.a : mac_timer.obj (.text:macTimerCancel)
                             00010918   drivers_cc13x2.aem4f : NVSCC26XX.oem4f (.text:doErase)
                             00010b2a                        : PowerCC26X2_calibrateRCOSC.oem4f (.text:PowerCC26X2_initiateCalibration)
                             00010c9e                        : TRNGCC26XX.oem4f (.text:TRNG_init)
                             00010d4c   maclib_secure_cc13x2.a : mac_radio.obj (.text:macRadioSetChannelRx)
                             00010d54                          : mac_radio.obj (.text:macRadioSetChannelRx)
                             00010ddc   drivers_cc13x2.aem4f : AESCCMCC26XX.oem4f (.text:AESCCM_construct)
                             00010de8                        : AESCCMCC26XX.oem4f (.text:AESCCM_construct)
                             00010f40                        : NVSCC26XX.oem4f (.text:NVSCC26XX_init)
                             00010f50                        : NVSCC26XX.oem4f (.text:NVSCC26XX_init)
                             00010f80                        : StructRingBuf.oem4f (.text:StructRingBuf_put)
                             00010fb4                        : StructRingBuf.oem4f (.text:StructRingBuf_put)
                             00011044   maclib_secure_cc13x2.a : mac_radio.obj (.text:macRadioSetChannel)
                             0001104c                          : mac_radio.obj (.text:macRadioSetChannel)
                             000110a0                          : mac.obj (.text:macStopCmd)
                             000110de                          : mac_tx.obj (.text:macTxAckReceivedCallback)
                             000110fa                          : mac_tx.obj (.text:macTxAckReceivedCallback)
                             00011332   drivers_cc13x2.aem4f : GPIOCC26XX.oem4f (.text:GPIO_enableInt)
                             0001154e   maclib_secure_cc13x2.a : mac_rx_onoff.obj (.text:macRxDisable)
                             000115b6                          : mac_timer.obj (.text:macTimerStart)
                             000116e8   drivers_cc13x2.aem4f : StructRingBuf.oem4f (.text:StructRingBuf_get)
                             000116f2                        : StructRingBuf.oem4f (.text:StructRingBuf_get)
                             00011722                        : UARTCC26XX.oem4f (.text:UARTCC26XX_readCancel)
                             00011736                        : UARTCC26XX.oem4f (.text:UARTCC26XX_readCancel)
                             000118e4                        : PowerCC26X2.oem4f (.text:switchXOSCHF)
                             00011b3e                        : PINCC26XX.oem4f (.text:PIN_setOutputEnable)
                             00011bb8                        : PowerCC26X2.oem4f (.text:PowerCC26XX_switchXOSC_HF)
                             00011e62   maclib_secure_cc13x2.a : mac_timer.obj (.text:macTimerUpdActive)
                             00011ec8   drivers_cc13x2.aem4f : RingBuf.oem4f (.text:RingBuf_put)
                             00011ef2                        : RingBuf.oem4f (.text:RingBuf_put)
                             00011fb4                        : GPIOCC26XX.oem4f (.text:GPIO_disableInt)
                             00011ff0   maclib_secure_cc13x2.a : mac_timer.obj (.text:MAC_PwrNextTimeout)
                             0001210a   drivers_cc13x2.aem4f : PWM.oem4f (.text:PWM_init)
                             0001214e                        : UART.oem4f (.text:UART_init)
                             0001218c   maclib_secure_cc13x2.a : mac.obj (.text:macRatCb_B)
                             0001235a   drivers_cc13x2.aem4f : PowerCC26X2.oem4f (.text:PowerCC26XX_isStableXOSC_HF)
                             0001239e                        : Random.oem4f (.text:Random_getNumber)
                             000123de                        : RingBuf.oem4f (.text:RingBuf_get)
                             000123e6                        : RingBuf.oem4f (.text:RingBuf_get)
                             000124d8   maclib_secure_cc13x2.a : mac_low_level.obj (.text:macLowLevelYield)
                             0001251a                          : mac_rx.obj (.text:macRxNokIsr)
                             000125a0                          : mac_symbol_timer.obj (.text:macSymbolTimerSetTrigger)
                             0001290a   rf_multiMode_cc13x2.aem4f : RFCC26X2_multiMode.c.cc13x2.ccs.o (.text:RF_cmdStoreEvents)
                             00012cd0                             : RFCC26X2_multiMode.c.cc13x2.ccs.o (.text:RF_powerConstraintRelease)
                             00012db4   maclib_secure_cc13x2.a : mac_timer.obj (.text:macTimerSetRollover)
                             00012dd8                          : mac_tx.obj (.text:macTxAckNotReceivedCallback)
                             00012de2                          : mac_tx.obj (.text:macTxAckNotReceivedCallback)
                             000130e4   rf_multiMode_cc13x2.aem4f : RFCC26X2_multiMode.c.cc13x2.ccs.o (.text:RF_runDirectImmediateCmd)
                             0001324c   maclib_secure_cc13x2.a : mac_symbol_timer.obj (.text:macSymbolTimerCount)
                             00013508   drivers_cc13x2.aem4f : PowerCC26X2.oem4f (.text:Power_releaseConstraint)
                             00013538                        : PowerCC26X2.oem4f (.text:Power_setConstraint)
                             000135f4   maclib_secure_cc13x2.a : mac_rx_onoff.obj (.text:macRxSoftDisable)
                             00013620                          : mac_symbol_timer.obj (.text:macSymbolTimerBCWakeUp)
                             00013644                          : mac_symbol_timer.obj (.text:macSymbolTimerICallTimerCback)
                             00013688                          : mac_timer.obj (.text:macTimerCheckUnAlignedQ)
                             00013864   rf_multiMode_cc13x2.aem4f : RFCC26X2_multiMode.c.cc13x2.ccs.o (.text:RF_queueEnd)
                             00013af4   maclib_secure_cc13x2.a : mac_rx_onoff.obj (.text:macRxSoftEnable)
                             00013b22                          : mac_symbol_timer.obj (.text:macSymbolTimerSetRollover)
                             00013c04   drivers_cc13x2.aem4f : List.oem4f (.text:List_insert)
                             00013e88                        : List.oem4f (.text:List_put)
                             00013eae                        : List.oem4f (.text:List_putHead)
                             00013ed4                        : List.oem4f (.text:List_remove)
                             0001420a                        : List.oem4f (.text:List_get)
                             000142f2   dpl_cc13x2.aem4f : HwiP_tirtos.oem4f (.text:HwiP_setFunc)
                             000143ac   drivers_cc13x2.aem4f : PowerCC26X2.oem4f (.text:Power_unregisterNotify)
                             000145b2                        : UARTCC26XX.oem4f (.text:threadSafeStdbyDisRelease)
                             000145d2                        : UARTCC26XX.oem4f (.text:threadSafeStdbyDisSet)
                             000148d8   rf_multiMode_cc13x2.aem4f : RFCC26X2_multiMode.c.cc13x2.ccs.o (.text:RF_powerConstraintSet)
                             00014c0a   cui.obj (.text:UartWriteCallback$6)
                             00014d42   maclib_secure_cc13x2.a : mac_symbol_timer.obj (.text:macSymbolTimerSetTriggerRollover)
                             00014ea4   osal_port.obj (.text:OsalPort_leaveCS)
                             00014ed8   mac_util.obj (.text:Util_clearEvent)
                             00014eee   mac_util.obj (.text:Util_setEvent)
                             00014f6e   drivers_cc13x2.aem4f : List.oem4f (.text:List_clearList)
MAC_MlmeGetReq            $Tramp$TT$L$PI$$MAC_MlmeGetReq
   1003a169     00056cb4     00056bb0   main.obj (.text:appTaskFxn)
                             00056bc0   main.obj (.text:appTaskFxn)
                             00015638   api_mac.obj (.text:ApiMac_mlmeGetReqUint16)
ti_sysbios_knl_Semaphore_pend__E  $Tramp$TT$L$PI$$ti_sysbios_knl_Semaphore_pend__E
   1002bfb1     00056cbc     00056c7e   main.obj (.text:appTaskFxn)
                             00057cbe   macTask.obj (.text:macTaskFxn$18)
                             00001e74   csf.obj (.text:Csf_init)
                             0000202a   csf.obj (.text:Csf_init)
                             000086f8   cui.obj (.text:CUI_statusLinePrintf)
                             0000a2ea   cui.obj (.text:CUI_statusLineResourceRequest)
                             0000e1e0   cui.obj (.text:CUI_writeString$6)
                             0001518c   dpl_cc13x2.aem4f : SemaphoreP_tirtos.oem4f (.text:SemaphoreP_pend)
xdc_runtime_System_abort__E  $Tramp$TT$L$PI$$xdc_runtime_System_abort__E
   1002f711     00057e70     00057a84   macTask.obj (.text:macTaskFxn$18)
                             00057ace   macTask.obj (.text:macTaskFxn$18)
MAC_Init                  $Tramp$TT$L$PI$$MAC_Init
   100399cd     00057e78     00057ad2   macTask.obj (.text:macTaskFxn$18)
MAC_InitCoord             $Tramp$TT$L$PI$$MAC_InitCoord
   1003624d     00057e80     00057ad6   macTask.obj (.text:macTaskFxn$18)
macExecute                $Tramp$TT$L$PI$$macExecute
   1003871d     00057e88     00057b62   macTask.obj (.text:macTaskFxn$18)
                             00057b76   macTask.obj (.text:macTaskFxn$18)
                             00057b8a   macTask.obj (.text:macTaskFxn$18)
                             00057b9e   macTask.obj (.text:macTaskFxn$18)
                             00057bb2   macTask.obj (.text:macTaskFxn$18)
                             00057bca   macTask.obj (.text:macTaskFxn$18)
                             00057be2   macTask.obj (.text:macTaskFxn$18)
                             00057bfa   macTask.obj (.text:macTaskFxn$18)
                             00057c12   macTask.obj (.text:macTaskFxn$18)
                             00057c2a   macTask.obj (.text:macTaskFxn$18)
                             00057c84   macTask.obj (.text:macTaskFxn$18)
                             00057d8a   macTask.obj (.text:macTaskFxn$18)
                             00057e34   macTask.obj (.text:macTaskFxn$18)
ti_sysbios_knl_Clock_delete  $Tramp$TT$L$PI$$ti_sysbios_knl_Clock_delete
   1002ecbb     00057e90     00057c44   macTask.obj (.text:macTaskFxn$18)
                             000096bc   maclib_secure_cc13x2.a : mac_hl_patch.obj (.text:macEdScanISR)
mac_msg_deallocate        $Tramp$TT$L$PI$$mac_msg_deallocate
   100387f9     00057e98     00057c90   macTask.obj (.text:macTaskFxn$18)
                             00057d96   macTask.obj (.text:macTaskFxn$18)
                             00057e2a   macTask.obj (.text:macTaskFxn$18)
                             00057e4c   macTask.obj (.text:macTaskFxn$18)
                             00057ee4   macTask.obj (.text:MAC_CbackEvent)
ti_sysbios_knl_Task_enable__E  $Tramp$TT$L$PI$$ti_sysbios_knl_Task_enable__E
   1002ec71     00057ea0     00057c98   macTask.obj (.text:macTaskFxn$18)
ti_sysbios_knl_Task_disable__E  $Tramp$TT$L$PI$$ti_sysbios_knl_Task_disable__E
   1002ea4d     00057ea8     00057cc8   macTask.obj (.text:macTaskFxn$18)
                             0000cc0c   rom_sysbios.aem4f : rom_sysbios.obj (.text:ti_sysbios_knl_Task_setPri__E)
                             0000dc84                     : rom_sysbios.obj (.text:ti_sysbios_gates_GateMutexPri_enter__E)
                             0000f164                     : rom_sysbios.obj (.text:ti_sysbios_gates_GateMutexPri_leave__E)
                             0001369a   app_pem4f.oem4f (.text:ti_sysbios_BIOS_atExitFunc__I)
                             0001483e   dpl_cc13x2.aem4f : PowerCC26X2_tirtos.oem4f (.text:PowerCC26XX_schedulerDisable)
                             00014a6c   osal_port.obj (.text:OsalPort_enterCS)
macCommStatusInd          $Tramp$TT$L$PI$$macCommStatusInd
   100393ed     00057eb0     00057e1c   macTask.obj (.text:macTaskFxn$18)

[88 trampolines]
[416 trampoline calls]


GLOBAL SYMBOLS: SORTED ALPHABETICALLY BY Name 

address   name                                                            
-------   ----                                                            
00015571  AESCCM_Operation_init                                           
0001519d  AESCCM_Params_init                                              
00015399  AESCCM_close                                                    
00001cd4  AESCCM_config                                                   
00010dc5  AESCCM_construct                                                
00001d25  AESCCM_count                                                    
00001b90  AESCCM_defaultParams                                            
20003d8c  AESCCM_handle                                                   
00014f39  AESCCM_init                                                     
000155d9  AESCCM_oneStepDecrypt                                           
000155df  AESCCM_oneStepEncrypt                                           
000151ad  AESCCM_open                                                     
00012f11  ApiMac_convertCapabilityInfo                                    
20002988  ApiMac_extAddr                                                  
0000e555  ApiMac_init                                                     
00014aed  ApiMac_mcpsDataReq                                              
00015639  ApiMac_mlmeGetReqUint16                                         
00015579  ApiMac_mlmeSetReqArray                                          
0001530d  ApiMac_mlmeSetReqBool                                           
0001531b  ApiMac_mlmeSetReqUint16                                         
00015329  ApiMac_mlmeSetReqUint8                                          
0001563d  ApiMac_mlmeSetSecurityReqStruct                                 
20000a37  AppTaskId                                                       
00001a94  BoardGpioInitTable                                              
00014709  Board_init                                                      
0000d885  Board_initHook                                                  
200038e0  ButtonObjects                                                   
000151bd  Button_Params_init                                              
00001ba0  Button_config                                                   
00001d28  Button_count                                                    
00001bb0  Button_defaultParams                                            
0000fc59  Button_gpioCallbackFxn                                          
0000b8dd  Button_init                                                     
0000ab5d  Button_open                                                     
0000d885  CC1352R1_LAUNCHXL_shutDownExtFlash                              
0001195d  CC1352R1_LAUNCHXL_wakeUpExtFlash                                
00012a79  CUI_btnResourceRequest                                          
00004ab1  CUI_init                                                        
00012ab1  CUI_ledBlink                                                    
0001276d  CUI_ledOn                                                       
0001389d  CUI_ledResourceRequest                                          
00014f4d  CUI_menuActionBack                                              
00009955  CUI_menuActionHelp                                              
000154d1  CUI_paramsInit                                                  
000086b5  CUI_statusLinePrintf                                            
0000a2c1  CUI_statusLineResourceRequest                                   
00010e19  Cllc_addSecDevice                                               
20001a84  Cllc_associatedDevList                                          
200019ac  Cllc_events                                                     
00014725  Cllc_findDevice                                                 
000153a5  Cllc_getChanMask                                                
000151cd  Cllc_getDefaultKey                                              
000138c9  Cllc_getFormingPanId                                            
0000cca5  Cllc_init                                                       
00001391  Cllc_keySource                                                  
0000e23d  Cllc_removeDevice                                               
0000f705  Cllc_restoreNetwork                                             
00014741  Cllc_securityFill                                               
0000ecb9  Cllc_securityInit                                               
00011f41  Cllc_sendDisassociationRequest                                  
00012b21  Cllc_setJoinPermit                                              
200019fc  Cllc_statistics                                                 
000154db  ClockP_Params_init                                              
00011209  ClockP_construct                                                
00011259  ClockP_create                                                   
00015645  ClockP_destruct                                                 
00015649  ClockP_getCpuFreq                                               
000153b1  ClockP_getSystemTickPeriod                                      
1002dc11  ClockP_getSystemTicks                                           
0001564d  ClockP_getTimeout                                               
000151dd  ClockP_isActive                                                 
00015651  ClockP_setTimeout                                               
00015655  ClockP_start                                                    
00015659  ClockP_stop                                                     
20003d90  ClockP_tickPeriod                                               
20002514  Collector_events                                                
20002564  Collector_macCallbacks                                          
0000afd5  Collector_sendConfigRequest                                     
00012b59  Collector_sendDeviceTypeRequest                                 
00012b91  Collector_sendToggleLedRequest                                  
20002528  Collector_statistics                                            
00015337  CryptoKeyPlaintext_initBlankKey                                 
00015337  CryptoKeyPlaintext_initKey                                      
20003c00  CryptoResourceCC26XX_accessSemaphore                            
00010295  CryptoResourceCC26XX_constructRTOSObjects                       
20003c1c  CryptoResourceCC26XX_hwi                                        
20003c38  CryptoResourceCC26XX_operationSemaphore                         
20002be1  CryptoResourceCC26XX_pollingFlag                                
000141ad  CryptoUtils_buffersMatch                                        
000112a9  Csf_deviceDisassocUpdate                                        
00007dcd  Csf_deviceUpdate                                                
20001ce6  Csf_events                                                      
0000c985  Csf_getDevice                                                   
0000e955  Csf_getDeviceItem                                               
000137b5  Csf_getDeviceShort                                              
00012271  Csf_getNetworkInformation                                       
000119ed  Csf_getNumDeviceListEntries                                     
00001e39  Csf_init                                                        
20001cdd  Csf_keys                                                        
00004629  Csf_processEvents                                               
0000ee99  Csf_removeDevice                                                
000133c5  Csf_setConfigClock                                              
00013021  Csf_setTrackingClock                                            
0000d351  Csf_updateFrameCounter                                          
00001d24  Display_count                                                   
10030ad1  FHAPI_SFDRxCb                                                   
10030501  FHAPI_completeRxCb                                              
1003035d  FHAPI_completeTxCb                                              
10030bad  FHAPI_getBitCount                                               
10030a81  FHAPI_getRemDT                                                  
10030b81  FHAPI_getTxChHoppingFunc                                        
10030a21  FHAPI_getTxParams                                               
100308d1  FHAPI_getTxParams_old                                           
10030809  FHAPI_reset                                                     
10030689  FHAPI_sendData                                                  
10030b51  FHAPI_setStateCb                                                
10030101  FHAPI_start                                                     
10030989  FHAPI_startBS                                                   
10030b11  FHAPI_stopAsync                                                 
10030cb5  FHDATA_CheckMinTxOffTime                                        
10031011  FHDATA_asyncMinTxOffTimerCb                                     
10031029  FHDATA_checkPktFromQueue                                        
10030fb5  FHDATA_chkASYNCStartReq                                         
10030f65  FHDATA_getASYNCDelay                                            
10030d61  FHDATA_getPktFromQueue                                          
10030bd1  FHDATA_procASYNCReq                                             
1003103d  FHDATA_procEDFEReq                                              
10030e89  FHDATA_purgePktFromQueue                                        
10030e05  FHDATA_purgeUnSupportedFrameTypes                               
10030efd  FHDATA_requeuePkt                                               
10031051  FHDATA_startEDFEReq                                             
10031065  FHDATA_startEDFETimer                                           
10030fed  FHDATA_updateCCA                                                
10031129  FHDH1CF_getBCChannelNum                                         
100312f5  FHDH1CF_getBcCh                                                 
10031209  FHDH1CF_getCh                                                   
1003125d  FHDH1CF_getChannelNum                                           
100312b1  FHDH1CF_getTxChannelNum                                         
10031069  FHDH1CF_hashword                                                
100311ad  FHDH1CF_mapChIdxChannel                                         
0001565d  FHIEPATCH_extractHie                                            
00015661  FHIEPATCH_extractPie                                            
00015665  FHIEPATCH_genHie                                                
00015669  FHIEPATCH_genPieContent                                         
0001566d  FHIEPATCH_getHieLen                                             
00015671  FHIEPATCH_getPieContentLen                                      
000154e5  FHIEPATCH_getPieId                                              
00015675  FHIEPATCH_parseHie                                              
00015679  FHIEPATCH_parsePie                                              
1003230d  FHIE_extractHie                                                 
1003197d  FHIE_extractPie                                                 
10032905  FHIE_gen                                                        
1003248d  FHIE_genBTIE                                                    
10031fed  FHIE_genCommonInformation                                       
10032689  FHIE_genExcludedChannelMask                                     
100323cd  FHIE_genExcludedChannelRanges                                   
10031d91  FHIE_genHie                                                     
1003210d  FHIE_genPie                                                     
10031325  FHIE_genPieContent                                              
10032755  FHIE_genUTIE                                                    
10032519  FHIE_getCcaSfdTime                                              
100326f1  FHIE_getChannelPlan                                             
100327b1  FHIE_getCommonInformationLen                                    
10032859  FHIE_getExcludedChannelControl                                  
10032939  FHIE_getHie                                                     
10032619  FHIE_getHieLen                                                  
1003296d  FHIE_getLen                                                     
100328cf  FHIE_getPie                                                     
1003220d  FHIE_getPieContentLen                                           
10032599  FHIE_getPieLen                                                  
10032895  FHIE_getSubPie                                                  
10032805  FHIE_isChannelPlanValid                                         
10031ba9  FHIE_parseCommonInformation                                     
10031ec9  FHIE_parseHie                                                   
10031699  FHIE_parsePie                                                   
10032cf5  FHMGR_BCTimerEventUpd                                           
1003299d  FHMGR_bcTimerIsrCb                                              
10032d11  FHMGR_macCancelFHTimer                                          
10032d29  FHMGR_macGetElapsedFHTime                                       
10032c1d  FHMGR_macStartFHTimer                                           
10032cc9  FHMGR_macStartOneShotTimer                                      
10032d41  FHMGR_pendBcChUpdate                                            
10032d47  FHMGR_pendUcChUpdate                                            
10032bb5  FHMGR_ucTimerIsrCb                                              
10032c75  FHMGR_updateHopping                                             
10032b45  FHMGR_updateRadioBCChannel                                      
10032acd  FHMGR_updateRadioUCChannel                                      
10033119  FHNT_AddDeviceCB                                                
100337b1  FHNT_DelDeviceCB                                                
1003374d  FHNT_addOptEntry                                                
10033381  FHNT_addTempEUI                                                 
10033aa9  FHNT_assessTime                                                 
10033209  FHNT_createEntry                                                
100332c5  FHNT_createFixedEntry                                           
1003386d  FHNT_delTempIndex                                               
10033969  FHNT_getAvailEntry                                              
100339f9  FHNT_getEUI                                                     
10032fe1  FHNT_getEntry                                                   
100335f5  FHNT_getFixedEntry                                              
100338c1  FHNT_getFixedNTIndexFromTempIndex                               
10033671  FHNT_getNTIndexFromTempIndex                                    
100336e5  FHNT_getOptEntry                                                
100334c5  FHNT_getRemoveEntry                                             
10032ea1  FHNT_getRemoveEntryFromTemp                                     
1003355d  FHNT_getRemoveFixedEntry                                        
10033a75  FHNT_init                                                       
10033429  FHNT_initTempTable                                              
10032d4d  FHNT_purgeEntry                                                 
10033a3d  FHNT_purgeTimerIsrCb                                            
10033915  FHNT_putEntry                                                   
100339b1  FHNT_putFixedEntry                                              
10033811  FHNT_reset                                                      
10033ca5  FHPIB_get                                                       
10033d25  FHPIB_getIndex                                                  
10033cf5  FHPIB_getLen                                                    
10033d41  FHPIB_reset                                                     
10033ac9  FHPIB_set                                                       
10033d59  FHSM_event                                                      
10033dcd  FHUTIL_adjBackOffDur                                            
100343fd  FHUTIL_assert                                                   
10034411  FHUTIL_calcUfsi                                                 
100343e5  FHUTIL_compBfioTxTime                                           
1003441b  FHUTIL_elapsedTime                                              
10033f09  FHUTIL_getBcTxParams                                            
100341c1  FHUTIL_getBitCounts                                             
100342a9  FHUTIL_getCh0                                                   
10034219  FHUTIL_getChannelSpacing                                        
100340cd  FHUTIL_getCurBfio                                               
10034261  FHUTIL_getCurUfsi                                               
100343c9  FHUTIL_getElapsedTime                                           
10034149  FHUTIL_getGuardTime                                             
100342e1  FHUTIL_getMaxChannels                                           
1003404d  FHUTIL_getTxChannel                                             
10034319  FHUTIL_getTxUfsi                                                
100343a1  FHUTIL_getUcChannel                                             
1003441f  FHUTIL_noAction                                                 
10034349  FHUTIL_updateBcNumChannels                                      
10034375  FHUTIL_updateUcNumChannels                                      
10033fc9  FHUTIl_updateBTIE                                               
0000095c  FH_ROM_Flash_JT                                                 
20003d94  FH_test_var                                                     
10033d9d  FSM_transaction_debug                                           
00001b2c  GPIOCC26XX_config                                               
00011f85  GPIO_disableInt                                                 
000112f9  GPIO_enableInt                                                  
000151ed  GPIO_getConfig                                                  
000133f5  GPIO_hwiIntFxn                                                  
0000b8dd  GPIO_init                                                       
00013cb1  GPIO_read                                                       
00013425  GPIO_setCallback                                                
00009a65  GPIO_setConfig                                                  
000102f5  GPIO_write                                                      
2000203c  HEAPMGR_SIZE                                                    
0000003c  HMAC_ROM_Flash_JT                                               
000151fd  HwiP_Params_init                                                
000126b1  HwiP_construct                                                  
0001567d  HwiP_destruct                                                   
00015681  HwiP_disable                                                    
00015685  HwiP_enableInterrupt                                            
00015689  HwiP_post                                                       
1002ec47  HwiP_restore                                                    
000142d9  HwiP_setFunc                                                    
0001568d  HwiP_setPriority                                                
0000162c  ICALL_OSAL_ROM_Flash_JT                                         
20003814  LEDObjects                                                      
00015155  LED_Params_init                                                 
00001bc0  LED_config                                                      
00001d29  LED_count                                                       
00001cdc  LED_defaultParams                                               
00015581  LED_getState                                                    
0005715f  LED_init                                                        
00009b75  LED_open                                                        
000126ef  LED_setBrightnessLevel                                          
000127a9  LED_setOff                                                      
00012f47  LED_setOn                                                       
00011349  LED_startBlinking                                               
000141cf  LED_stopBlinking                                                
00014a51  LED_toggle                                                      
0000118c  LMAC_ROM_Flash_JT                                               
00014f61  List_clearList                                                  
000141f1  List_get                                                        
00013be1  List_insert                                                     
00013e69  List_put                                                        
00013e8f  List_putHead                                                    
00013eb5  List_remove                                                     
00014f75  MAC_CbackCheckPending                                           
00057eb9  MAC_CbackEvent                                                  
00014f89  MAC_CbackQueryRetransmit                                        
10039cbd  MAC_EnableFH                                                    
1003a1b9  MAC_GetPHYParamReq                                              
100399cd  MAC_Init                                                        
10034849  MAC_InitBeaconCoord                                             
10035159  MAC_InitBeaconDevice                                            
1003624d  MAC_InitCoord                                                   
10037c45  MAC_InitDevice                                                  
10038e15  MAC_InitFH                                                      
10036e05  MAC_McpsDataAlloc                                               
10036729  MAC_McpsDataReq                                                 
10036455  MAC_McpsPurgeReq                                                
10037ea5  MAC_MlmeAssociateReq                                            
10036471  MAC_MlmeAssociateRsp                                            
10039dc1  MAC_MlmeDisassociateReq                                         
10039ce1  MAC_MlmeFHGetReq                                                
10039d01  MAC_MlmeFHGetReqSize                                            
10039d21  MAC_MlmeFHSetReq                                                
1003b159  MAC_MlmeGetPointerSecurityReq                                   
1003a169  MAC_MlmeGetReq                                                  
1003a275  MAC_MlmeGetReqSize                                              
1003af09  MAC_MlmeGetSecurityReq                                          
1003b101  MAC_MlmeGetSecurityReqSize                                      
1003648d  MAC_MlmeOrphanRsp                                               
10037ebd  MAC_MlmePollReq                                                 
100391c9  MAC_MlmeResetReq                                                
1003a689  MAC_MlmeScanReq                                                 
10039ec5  MAC_MlmeSetReq                                                  
1003a99d  MAC_MlmeSetSecurityReq                                          
100364e1  MAC_MlmeStartReq                                                
10039ddd  MAC_MlmeSyncReq                                                 
10039df5  MAC_MlmeWSAsyncReq                                              
000153bd  MAC_PwrMode                                                     
00011fc9  MAC_PwrNextTimeout                                              
0000be1d  MAC_PwrOffReq                                                   
000127e5  MAC_PwrOnReq                                                    
10039e55  MAC_RandomByte                                                  
10039729  MAC_ResumeReq                                                   
1003a1f9  MAC_SetPHYParamReq                                              
000142f9  MAC_SrcMatchAckAllPending                                       
0000c0ed  MAC_SrcMatchAddEntry                                            
00014f9d  MAC_SrcMatchCheckAllPending                                     
00013c0b  MAC_SrcMatchDeleteEntry                                         
0000dcf1  MAC_SrcMatchEnable                                              
10039d41  MAC_StartFH                                                     
10039c69  MAC_YieldReq                                                    
0001520d  Main_assertHandler                                              
200012f9  Main_assertReason                                               
000155e5  Main_excHandler                                                 
20001310  Main_user1Cfg                                                   
000153c9  NOROM_CPUcpsid                                                  
000153d5  NOROM_CPUcpsie                                                  
000155eb  NOROM_CPUdelay                                                  
0001475d  NOROM_ChipInfo_GetChipFamily                                    
00010e6d  NOROM_ChipInfo_GetChipType                                      
0001200d  NOROM_ChipInfo_GetHwRevision                                    
00014b25  NOROM_ChipInfo_GetPackageType                                   
00014779  NOROM_FlashProgram                                              
00014795  NOROM_FlashSectorErase                                          
0000dd79  NOROM_OSCHF_AttemptToSwitchToXosc                               
0000fcbd  NOROM_OSCHF_SwitchToRcOscTurnOffXosc                            
00013cd9  NOROM_OSCHF_TurnOnXosc                                          
00012bc9  NOROM_OSC_HPOSCRelativeFrequencyOffsetGet                       
0000fd21  NOROM_OSC_HPOSCRtcCompensate                                    
0000f2a9  NOROM_RFCAnaDivTxOverride                                       
00014fb1  NOROM_RFCCpeIntGetAndClear                                      
00002d3b  NOROM_RFCCpePatchReset                                          
00013f25  NOROM_RFCDoorbellSendTo                                         
0001521d  NOROM_RFCHwIntGetAndClear                                       
00013d01  NOROM_RFCOverrideSearch                                         
00015691  NOROM_RFCOverrideUpdate                                         
00011a35  NOROM_RFCSynthPowerDown                                         
0000c4fd  NOROM_SetupTrimDevice                                           
00013055  NOROM_SysCtrlIdle                                               
00007b25  NOROM_SysCtrlStandby                                            
200025dc  NVOCMP_nvHandle                                                 
200025af  NVOCMP_size                                                     
00015589  NVSCC26XX_close                                                 
000155f1  NVSCC26XX_control                                               
00013485  NVSCC26XX_erase                                                 
000018e8  NVSCC26XX_fxnTable                                              
000147e9  NVSCC26XX_getAttrs                                              
00010f15  NVSCC26XX_init                                                  
00014805  NVSCC26XX_lock                                                  
0000e5d5  NVSCC26XX_open                                                  
00012051  NVSCC26XX_read                                                  
000153ed  NVSCC26XX_unlock                                                
00008a69  NVSCC26XX_write                                                 
00001c60  NVS_config                                                      
00001d26  NVS_count                                                       
00001d3c  NVS_defaultParams                                               
000154ef  NVS_erase                                                       
000154f9  NVS_getAttrs                                                    
0001394d  NVS_init                                                        
00011ac5  NVS_open                                                        
00015503  NVS_read                                                        
00015345  NVS_write                                                       
00014619  OsalPort_buildUint32                                            
0000fde9  OsalPort_clearEvent                                             
00014a6b  OsalPort_enterCS                                                
00013089  OsalPort_free                                                   
00014e9d  OsalPort_leaveCS                                                
0000da35  OsalPort_malloc                                                 
00014339  OsalPort_memcmp                                                 
00014213  OsalPort_msgAllocate                                            
00014359  OsalPort_msgDeallocate                                          
000137e3  OsalPort_msgDequeue                                             
00013811  OsalPort_msgEnqueue                                             
0001272d  OsalPort_msgEnqueueMax                                          
00013361  OsalPort_msgExtract                                             
00014b55  OsalPort_msgPush                                                
00010775  OsalPort_msgReceive                                             
00011665  OsalPort_msgSend                                                
0000fe4d  OsalPort_pwrmgrTaskState                                        
0000f91d  OsalPort_registerTask                                           
000107d1  OsalPort_setEvent                                               
0000dac1  OsalPort_setTimer                                               
00015405  OsalPort_stopTimer                                              
0001522d  PINCC26XX_getPinCount                                           
00001ce4  PINCC26XX_hwAttrs                                               
000134b5  PINCC26XX_setMux                                                
0000f389  PIN_add                                                         
00014637  PIN_close                                                       
000058dd  PIN_init                                                        
0000c24d  PIN_open                                                        
00015411  PIN_registerIntCb                                               
0001082d  PIN_remove                                                      
00012c39  PIN_setConfig                                                   
00012821  PIN_setInterrupt                                                
00011b0d  PIN_setOutputEnable                                             
0001285d  PIN_setOutputValue                                              
00014fc5  PWM_Params_init                                                 
0001550d  PWM_close                                                       
UNDEFED   PWM_config                                                      
UNDEFED   PWM_count                                                       
00001acc  PWM_defaultParams                                               
000120d9  PWM_init                                                        
000122f1  PWM_open                                                        
00015517  PWM_setDuty                                                     
00015521  PWM_start                                                       
00011b55  PowerCC26X2_RCOSC_clockFunc                                     
0000ef81  PowerCC26X2_auxISR                                              
00014fd9  PowerCC26X2_calibrate                                           
00001b40  PowerCC26X2_config                                              
00010b05  PowerCC26X2_initiateCalibration                                 
200021a8  PowerCC26X2_module                                              
00014a85  PowerCC26XX_calibrate                                           
00012331  PowerCC26XX_isStableXOSC_HF                                     
0001483d  PowerCC26XX_schedulerDisable                                    
00014859  PowerCC26XX_schedulerRestore                                    
0000bed1  PowerCC26XX_standbyPolicy                                       
20003d98  PowerCC26XX_swiKey                                              
00011b9d  PowerCC26XX_switchXOSC_HF                                       
20003d9c  PowerCC26XX_taskKey                                             
0001541d  Power_getConstraintMask                                         
00015429  Power_getDependencyCount                                        
00014655  Power_getTransitionLatency                                      
00014b6d  Power_idleFunc                                                  
00006965  Power_init                                                      
00013d29  Power_registerNotify                                            
000134e5  Power_releaseConstraint                                         
0000b815  Power_releaseDependency                                         
00013515  Power_setConstraint                                             
0000b9a1  Power_setDependency                                             
00005fc5  Power_sleep                                                     
00014399  Power_unregisterNotify                                          
2000010c  RAM_MAC_BASE_ADDR                                               
00001c6c  RFCC26XX_hwAttrs                                                
00001cec  RFCC26XX_schedulerPolicy                                        
00014fed  RF_Params_init                                                  
00015001  RF_RatConfigCompare_init                                        
00015591  RF_RatConfigOutput_init                                         
00014b85  RF_ScheduleCmdParams_init                                       
00010b5d  RF_TxPowerTable_findValue                                       
00014b9d  RF_cancelCmd                                                    
00009c85  RF_close                                                        
20001ebc  RF_cmdFs                                                        
00001258  RF_cmdFs_2gfsk50kbps154g                                        
20001f44  RF_cmdIEEECsma                                                  
20001fe4  RF_cmdIEEERx                                                    
20001ed4  RF_cmdIEEETx                                                    
20001e88  RF_cmdNop                                                       
20001e98  RF_cmdNopFg                                                     
20001eec  RF_cmdPropCs                                                    
20001f08  RF_cmdPropCsSlotted                                             
00001270  RF_cmdPropCs_2gfsk50kbps154g                                    
20001f84  RF_cmdPropRadioDivSetup                                         
000012ac  RF_cmdPropRadioDivSetup_2gfsk50kbps154g                         
20001fb4  RF_cmdPropRxAdv                                                 
000012d4  RF_cmdPropRxAdv_2gfsk50kbps154g                                 
20001f64  RF_cmdPropTxAdv                                                 
0000128c  RF_cmdPropTxAdv_2gfsk50kbps154g                                 
20001f24  RF_cmdRadioSetup                                                
20001ea8  RF_cmdRxAckCmd                                                  
0000b5b5  RF_control                                                      
00015695  RF_defaultConflictPolicy                                        
00010d6d  RF_defaultSubmitPolicy                                          
00015029  RF_flushCmd                                                     
00015167  RF_getCmdOp                                                     
0000f985  RF_getCurrentTime                                               
0000d3e5  RF_getInfo                                                      
000148ad  RF_getRssi                                                      
0000de89  RF_getTxPower                                                   
20002854  RF_handle                                                       
00005331  RF_open                                                         
20002860  RF_params                                                       
0000b33d  RF_pendCmd                                                      
00015435  RF_powerConstraintGet                                           
00012ca9  RF_powerConstraintRelease                                       
000148c9  RF_powerConstraintSet                                           
20002624  RF_prop_2gfsk50kbps154g                                         
0001503d  RF_ratCompare                                                   
0000f771  RF_ratDisableChannel                                            
0000c799  RF_requestAccess                                                
000155fd  RF_runDirectCmd                                                 
00015603  RF_runImmediateCmd                                              
0000512d  RF_scheduleCmd                                                  
00014439  RF_setTxPower                                                   
0000eff5  RF_yield                                                        
000005a4  ROM_constStruct                                                 
00001828  ROM_externFuncPtrs                                              
200022b8  ROM_stateStruct                                                 
00012371  Random_getNumber                                                
0000f469  Random_seedAutomatic                                            
00010cbd  ResetISR                                                        
00015179  RingBuf_construct                                               
000123b1  RingBuf_get                                                     
00011eb5  RingBuf_put                                                     
UNDEFED   SHT$$INIT_ARRAY$$Base                                           
UNDEFED   SHT$$INIT_ARRAY$$Limit                                          
000139a5  SemaphoreP_constructBinary                                      
000139d1  SemaphoreP_createBinary                                         
00015441  SemaphoreP_delete                                               
00015699  SemaphoreP_destruct                                             
0001518b  SemaphoreP_pend                                                 
0001569d  SemaphoreP_post                                                 
00015065  StructRingBuf_construct                                         
000116b1  StructRingBuf_get                                               
00015361  StructRingBuf_isFull                                            
00010f69  StructRingBuf_put                                               
0001525d  SwiP_Params_init                                                
00012911  SwiP_construct                                                  
000156a1  SwiP_destruct                                                   
000156a5  SwiP_disable                                                    
000156a9  SwiP_getTrigger                                                 
000156ad  SwiP_or                                                         
1002db61  SwiP_restore                                                    
000156b1  SwiP_setPriority                                                
00015079  TRNG_close                                                      
0000f069  TRNG_construct                                                  
00001bd0  TRNG_defaultParams                                              
0000bf85  TRNG_generateEntropy                                            
00010c65  TRNG_init                                                       
00011be5  Timer_construct                                                 
0001526d  Timer_isActive                                                  
00015599  Timer_setTimeout                                                
000156b5  Timer_start                                                     
000156b9  Timer_stop                                                      
0000e3c9  UARTCC26XX_close                                                
0000ff15  UARTCC26XX_control                                              
00001910  UARTCC26XX_fxnTable                                             
00007c79  UARTCC26XX_hwiIntFxn                                            
000155a1  UARTCC26XX_init                                                 
00007705  UARTCC26XX_open                                                 
0000892d  UARTCC26XX_read                                                 
000116fd  UARTCC26XX_readCancel                                           
00015609  UARTCC26XX_readPolling                                          
000101d1  UARTCC26XX_swiIntFxn                                            
0000aef5  UARTCC26XX_write                                                
0000d7f1  UARTCC26XX_writeCancel                                          
0001560f  UARTCC26XX_writePolling                                         
00014be5  UART_Params_init                                                
0001552b  UART_close                                                      
00001c78  UART_config                                                     
00015535  UART_control                                                    
00001d27  UART_count                                                      
000019b0  UART_defaultParams                                              
0001211d  UART_init                                                       
00012431  UART_open                                                       
0001553f  UART_read                                                       
00015549  UART_readCancel                                                 
00015553  UART_write                                                      
000155a9  Util_breakUint32                                                
000155b1  Util_buildUint16                                                
0001536f  Util_buildUint32                                                
00014ec9  Util_clearEvent                                                 
0001555d  Util_copyExtAddr                                                
00015615  Util_hiUint16                                                   
000156bd  Util_loUint16                                                   
00014edf  Util_setEvent                                                   
00000000  __ASM__                                                         
00000082  __ISA__                                                         
00000095  __PLAT__                                                        
20014000  __STACK_END                                                     
00000560  __STACK_SIZE                                                    
20014000  __STACK_TOP                                                     
000000bc  __TARG__                                                        
00015d70  __TI_CINIT_Base                                                 
00015da0  __TI_CINIT_Limit                                                
00015d3c  __TI_Handler_Table_Base                                         
00015d48  __TI_Handler_Table_Limit                                        
0000ca25  __TI_auto_init                                                  
0000f9ed  __TI_decompress_lzss                                            
0001537d  __TI_decompress_none                                            
ffffffff  __TI_pprof_out_hndl                                             
ffffffff  __TI_prof_data_size                                             
ffffffff  __TI_prof_data_start                                            
00015958  __TI_static_base__                                              
00015465  __TI_zero_init                                                  
000000e2  __TRDR__                                                        
000155b9  __aeabi_errno_addr                                              
0000d883  __aeabi_idiv0                                                   
0000d883  __aeabi_ldiv0                                                   
0000f625  __aeabi_ldivmod                                                 
00014dad  __aeabi_lmul                                                    
0000ec3d  __aeabi_memclr                                                  
0000ec3d  __aeabi_memclr4                                                 
0000ec3d  __aeabi_memclr8                                                 
0000d185  __aeabi_memcpy                                                  
0000d185  __aeabi_memcpy4                                                 
0000d185  __aeabi_memcpy8                                                 
0000ec3f  __aeabi_memset                                                  
0000ec3f  __aeabi_memset4                                                 
0000ec3f  __aeabi_memset8                                                 
000125f1  __aeabi_uidiv                                                   
000125f1  __aeabi_uidivmod                                                
0000d2b9  __aeabi_uldivmod                                                
ffffffff  __binit__                                                       
ffffffff  __c_args__                                                      
00057fa8  __ccfg                                                          
20013aa0  __stack                                                         
00014c15  _args_main                                                      
00010cbd  _c_int00                                                        
00000e90  _ctypes_                                                        
20002c60  _lock                                                           
00008a67  _nop                                                            
0001544d  _register_lock                                                  
00015459  _register_unlock                                                
20002c64  _unlock                                                         
0000118b  aesccmCC26XXHWAttrs                                             
20003c8c  aesccmCC26XXObjects                                             
20002980  appEvents                                                       
20002990  appSem                                                          
20002704  appSubMenu                                                      
20001358  appTask                                                         
00056815  appTaskFxn                                                      
20002979  appTaskId                                                       
00011749  atoi                                                            
20002cf5  bInSwi                                                          
ffffffff  binit                                                           
20001d18  collectorStatusLine                                             
20002880  commissionSubMenu                                               
200028c0  configureSubMenu                                                
00010715  convertTxOptions                                                
00014a9f  copyApiMacAddrToMacAddr                                         
00011795  copy_in                                                         
00014459  crc_update                                                      
20001d14  csfCuiHndl                                                      
20002900  csfMainMenu                                                     
20002a04  csmPhy                                                          
2000275c  cuiMultiMenu                                                    
20001d1c  deviceStatusLine                                                
20003db6  driverlib_release_0_55938                                       
20003494  enhancedAckBuf                                                  
20002cfc  errno                                                           
20002698  fhObject                                                        
200023cc  fsCmdHandle                                                     
200025ae  gAction                                                         
20002c08  gpioCallbackFunctions                                           
20002c18  gpioPinConfigs                                                  
0001561b  halAssertHandler                                                
20013aa0  heapEnd                                                         
20003dc3  heapStart                                                       
20002030  heapmgrMemFreeTotal                                             
00001c84  inPinTypes                                                      
200023d8  lastPostCmd                                                     
20002c38  lastRatChanA                                                    
20002c39  lastRatChanB                                                    
20002adc  macAIFSTimer                                                    
20002afc  macAckDbg                                                       
20002b10  macActionSet                                                    
10036ba1  macAllocTxBuffer                                                
10037699  macApiAssociateReq                                              
10036399  macApiAssociateRsp                                              
10039e0d  macApiBadState                                                  
0000c2f9  macApiBeaconStartReq                                            
10036ef5  macApiDataReq                                                   
10039955  macApiDisassociateReq                                           
100360fd  macApiOrphanRsp                                                 
10039b81  macApiPending                                                   
10037ab9  macApiPollReq                                                   
10035eb1  macApiPurgeReq                                                  
0000b4e3  macApiPwrOnReq                                                  
1003a2ad  macApiScanReq                                                   
0000ba65  macApiStartReq                                                  
10034bcd  macApiSyncReq                                                   
10039e25  macApiUnsupported                                               
10039a99  macApiWSAsyncReq                                                
10037c99  macAssocDataReq                                                 
10037b25  macAssocDataReqComplete                                         
1003792d  macAssocDataRxInd                                               
10037ced  macAssocFailed                                                  
10037db5  macAssocFrameResponseTimeout                                    
10037e85  macAssocRxDisassoc                                              
10037d79  macAssociateCnf                                                 
00001404  macAssociatingSt                                                
00001ccc  macAuthTagLen                                                   
100371e1  macAutoPendAddSrcMatchTableEntry                                
10036fc5  macAutoPendMaintainSrcMatchTable                                
0000bca9  macAutoPoll                                                     
10039e69  macBcTimerHandler                                               
20003b54  macBeacon                                                       
10034a25  macBeaconBattLifeCallback                                       
100355dd  macBeaconCheckSched                                             
10034715  macBeaconCheckStartTime                                         
100354b5  macBeaconCheckTxTime                                            
10034921  macBeaconClearIndirect                                          
20003970  macBeaconCoord                                                  
20003d78  macBeaconCoordAction1                                           
10034a01  macBeaconCoordReset                                             
20003a18  macBeaconDevice                                                 
20003d0c  macBeaconDeviceAction                                           
10035575  macBeaconInit                                                   
200029ac  macBeaconPayload                                                
1003495d  macBeaconPeriodCallback                                         
100346a1  macBeaconPrepareCallback                                        
10035535  macBeaconRequeue                                                
100355a9  macBeaconReset                                                  
100348e1  macBeaconSchedRequested                                         
100349d5  macBeaconSetPrepareTime                                         
10035369  macBeaconSetSched                                               
100347ed  macBeaconSetupBroadcast                                         
10035421  macBeaconSetupCap                                               
10034545  macBeaconStartContinue                                          
10035229  macBeaconStartFrameResponseTimer                                
10035289  macBeaconStopTrack                                              
10035065  macBeaconSyncLoss                                               
10034781  macBeaconTxCallback                                             
0000cac5  macBlacklistChecking                                            
10035355  macBroadcastPendCallback                                        
10037549  macBuildAssociateReq                                            
1003560d  macBuildAssociateRsp                                            
1003576d  macBuildBeacon                                                  
100394f1  macBuildBeaconNotifyInd                                         
10038c1d  macBuildCommonReq                                               
10036a61  macBuildDataFrame                                               
10038f61  macBuildDisassociateReq                                         
100388f1  macBuildHeader                                                  
10038005  macBuildHeaderIes                                               
100380d9  macBuildPayloadCoexistIe                                        
10037ee9  macBuildPayloadIes                                              
10035bb5  macBuildPendAddr                                                
10035d4d  macBuildRealign                                                 
10039855  macBuildWSAsyncMsg                                              
100392e1  macBuildWSAsyncReq                                              
00011489  macCanSleep                                                     
00001c48  macCbackEventTbl                                                
100385f1  macCbackForEvent                                                
0000d9a5  macCcmDecrypt                                                   
0000dbd9  macCcmEncrypt                                                   
0000c83d  macCcmStarInverseTransform                                      
0000b265  macCcmStarTransform                                             
20002c28  macCfg                                                          
10037361  macCheckIndPacket                                               
100350ed  macCheckPendAddr                                                
00014ab9  macCheckPhyMode                                                 
00013125  macCheckPhyRate                                                 
100374e1  macCheckSched                                                   
00001c10  macCmdBufSize                                                   
000018b0  macCmdIncludeFHIe                                               
00001ca8  macCmdLen                                                       
100393ed  macCommStatusInd                                                
10039c95  macConflictSyncLossInd                                          
20003a4c  macCoord                                                        
20003d80  macCoordAction1                                                 
20003c54  macCoordAction2                                                 
20003d1c  macCoordAction3                                                 
10039bc1  macCoordAddrCmp                                                 
10039a41  macCoordDestAddrCmp                                             
10035c85  macCoordReset                                                   
00001dd8  macCryptoDriverTable                                            
20003da0  macCryptoDrvTblPtr                                              
20002af8  macCsmaRtcTimerId                                               
00014c8d  macCsmaTimerExpiry                                              
20003d2c  macData                                                         
20002a00  macDataBeaconRequeue                                            
200029f8  macDataCheckSched                                               
200029fc  macDataCheckTxTime                                              
200029e8  macDataRequeueIndirect                                          
10037279  macDataReset                                                    
200029ec  macDataRxBeaconCritical                                         
100373b9  macDataRxInd                                                    
10037455  macDataRxMemAlloc                                               
10037515  macDataRxMemFree                                                
100374c1  macDataSend                                                     
200029f4  macDataSetSched                                                 
200029f0  macDataTxBeaconComplete                                         
10037079  macDataTxComplete                                               
20003d3c  macDataTxDelay                                                  
10037529  macDataTxDelayCallback                                          
1003712d  macDataTxEnqueue                                                
200029e4  macDataTxIndirect                                               
100368cd  macDataTxSend                                                   
100374fd  macDataTxTimeAvailable                                          
10039d61  macDefaultAction                                                
10039ae9  macDestAddrCmp                                                  
10039b35  macDestSAddrCmp                                                 
20003a78  macDevice                                                       
200039ac  macDeviceAction1                                                
20003ce4  macDeviceAction2                                                
00011efb  macDeviceDescriptorLookup                                       
100377a1  macDeviceReset                                                  
100397c9  macDisassocComplete                                             
00009619  macEdScanISR                                                    
1003871d  macExecute                                                      
10037479  macFrameDuration                                                
1003749d  macFrameDurationIeee                                            
100372f5  macFrameDurationSubG                                            
20002414  macFrmFilter                                                    
20002c3c  macFsCmdActive                                                  
10039eb9  macGetCSMPhy                                                    
10039c35  macGetCoordAddress                                              
1003bb81  macGetEUI                                                       
1003ba75  macGetEUIIndex                                                  
10039d81  macGetMyAddrMode                                                
0000cf15  macGetRFCmdDuration                                             
00014479  macGetRadioState                                                
00010475  macGetRadioTxPowerReg                                           
00015621  macHalAssertHandler                                             
1003a29d  macIEEEGetPhyDesc                                               
00001bf0  macIEEEPhyTable                                                 
00001472  macIdleSt                                                       
1003842b  macIeCoexistIePresent                                           
100384e5  macIeFreeList                                                   
00006af1  macIncomingFrameSecurity                                        
00006311  macIncomingFrameSecurityMaterialRetrieval                       
00010fbd  macIncomingKeyUsagePolicyChecking                               
100352cd  macIncomingNonSlottedTx                                         
0000d50d  macIncomingSecurityLevelChecking                                
100358c5  macIndirectExpire                                               
100361e5  macIndirectMark                                                 
10036171  macIndirectRequeueFrame                                         
10035e09  macIndirectSend                                                 
10036085  macIndirectTxFrame                                              
10039e7d  macIsCsmOperational                                             
0000e021  macKeyDescriptorLookup                                          
00001d34  macKeySourceLen                                                 
000093e9  macLowLevelBufferInit                                           
00013159  macLowLevelDiags                                                
00015471  macLowLevelReset                                                
0001547d  macLowLevelResume                                               
000124b1  macLowLevelYield                                                
20002470  macMRFSKGenPhyTable                                             
1003a115  macMRFSKGetPhyDesc                                              
00001744  macMRFSKStdPhyTable                                             
20003d64  macMain                                                         
10038899  macMainReserve                                                  
10038791  macMainReset                                                    
100388e1  macMainSetTaskId                                                
0000e0a9  macMcuBitReverse                                                
00013da1  macMcuInit                                                      
00014ad3  macMcuLongDiv                                                   
000150a1  macMcuOverflowCapture                                           
0000eac9  macMcuOverflowSetCompare                                        
0000e6d5  macMcuOverflowSetPeriod                                         
00015567  macMcuRandomByte                                                
00014901  macMcuTimerCapture                                              
20003db7  macMgmt                                                         
20003acc  macMgmtAction1                                                  
20003cf8  macMgmtAction2                                                  
1003967d  macMgmtReset                                                    
100383c5  macMlmeSubIePresent                                             
10039ec1  macNoAction                                                     
0000a4b9  macOutgoingFrameKeyDescRetrieval                                
0000ad2d  macOutgoingFrameSecurity                                        
10034999  macOutgoingNonSlottedTx                                         
10037ed5  macPanConflictComplete                                          
20003db8  macPanCoordinator                                               
1003818d  macParseHeaderIes                                               
1003827d  macParsePayloadIes                                              
100364a9  macPendAddrLen                                                  
20003db9  macPhyChannel                                                   
20002858  macPhyTxPower                                                   
20003710  macPib                                                          
000156c5  macPibCheckByPatch                                              
00001304  macPibDefaults                                                  
00014673  macPibIndex                                                     
1003a239  macPibReset                                                     
00001091  macPibTbl                                                       
10037e3d  macPollCnf                                                      
10037b91  macPollDataReqComplete                                          
100379b1  macPollDataRxInd                                                
10037bed  macPollFrameResponseTimeout                                     
10037e61  macPollRxAssocRsp                                               
10037de9  macPollRxDisassoc                                               
000014e0  macPollingSt                                                    
20002aa4  macPrevPeriodRatCount                                           
20003dba  macPwr                                                          
00015489  macPwrReset                                                     
000043d9  macPwrVote                                                      
20002ad4  macRadioAckFrame                                                
20002aca  macRadioAckIeeeFrame                                            
000156c9  macRadioComputeLQI                                              
000033dd  macRadioCsmaTxCb                                                
0001491d  macRadioEnergyDetectStop                                        
00014939  macRadioInit                                                    
0000906d  macRadioInitIeee                                                
00004f0d  macRadioInitSubG                                                
00008065  macRadioLbtTxCb                                                 
00011d95  macRadioNeedAdjustPower                                         
0000aa71  macRadioPowerUp                                                 
00015567  macRadioRandomByte                                              
00011011  macRadioSetChannel                                              
00010d15  macRadioSetChannelRx                                            
0001318d  macRadioSetIEEEAddr                                             
000114d9  macRadioSetPanCoordinator                                       
00013a81  macRadioSetPanID                                                
0000d34f  macRadioSetRE                                                   
00013aad  macRadioSetShortAddr                                            
00014ca5  macRadioSetTxPower                                              
0000cfb1  macRadioStartScan                                               
00011ddd  macRadioStopScan                                                
00013ffd  macRadioSwInit                                                  
0000fa55  macRadioTxBackoffBoundary                                       
00014cbd  macRadioTxCancelTxAck                                           
0000d04d  macRadioTxEnhAckCb                                              
00014955  macRadioTxGo                                                    
000117e1  macRadioTxHandleAck                                             
00007599  macRadioTxPrepCsmaUnslotted                                     
0000cb65  macRadioTxPrepLbt                                               
000131c1  macRadioTxRequestTxAck                                          
0000d5a1  macRadioUpdateChannel                                           
0000d635  macRadioUpdateChannelRx                                         
0000c8e1  macRadioUpdateTxPower                                           
0000e755  macRadioWakeupCb                                                
20002cf4  macRadioYielded                                                 
0000d6c9  macRatCb_A                                                      
00012161  macRatCb_B                                                      
000131f5  macRatDisableChannelB                                           
00015495  macRegisterSfdDetect                                            
20002c42  macReqAccErrCnt                                                 
20002c3e  macReqAccessCnt                                                 
20002c40  macReqAccessTimeCnt                                             
20003c70  macReset                                                        
00001d6c  macRfDriverTable                                                
200023d4  macRfDrvTblPtr                                                  
00014971  macRxAckTxDoneCallback                                          
20003dbb  macRxActive                                                     
10037871  macRxAssocRsp                                                   
100362b1  macRxAssociateReq                                               
100395bd  macRxBeacon                                                     
00005e19  macRxBeaconCritical                                             
10036419  macRxBeaconReq                                                  
00002605  macRxCb                                                         
100373fd  macRxCheckMACPendingCallback                                    
1003742d  macRxCheckPendingCallback                                       
20002c3a  macRxCmdActive                                                  
10036cd9  macRxCompleteCallback                                           
10037a35  macRxCoordRealign                                               
20003ab0  macRxDataEntryOffset                                            
20003ac4  macRxDataEntryQueue                                             
10035f55  macRxDataReq                                                    
00011529  macRxDisable                                                    
100398d9  macRxDisassoc                                                   
00013dc9  macRxEnable                                                     
20003dbc  macRxEnableFlags                                                
20003aa4  macRxFilter                                                     
00056001  macRxFrameIsr                                                   
0000fabd  macRxHaltCleanup                                                
000135a5  macRxHardDisable                                                
000124f1  macRxNokIsr                                                     
00014499  macRxOff                                                        
0000e44d  macRxOffRequest                                                 
0000eb45  macRxOn                                                         
00014cd5  macRxOnRequest                                                  
10036355  macRxOrphan                                                     
20003dbd  macRxOutgoingAckFlag                                            
20002404  macRxOutputIeee                                                 
200023f8  macRxOutputSubG                                                 
100364c5  macRxPanConflict                                                
000154a1  macRxSequenceNum                                                
000135d5  macRxSoftDisable                                                
00013ad9  macRxSoftEnable                                                 
2000388c  macScan                                                         
20003ca4  macScanAction                                                   
1003a931  macScanCnfInit                                                  
1003a839  macScanComplete                                                 
1003a96d  macScanFailedInProgress                                         
0000972d  macScanNextChan                                                 
1003a599  macScanRxBeacon                                                 
0000a895  macScanRxCoordRealign                                           
1003a8b9  macScanStartTimer                                               
0000154e  macScanningSt                                                   
10039e91  macSecCpy                                                       
20003930  macSecurityPib                                                  
1003b199  macSecurityPibIndex                                             
1003ac6d  macSecurityPibReset                                             
00001698  macSecurityPibTbl                                               
20000a50  macSem                                                          
10038501  macSendDataMsg                                                  
0000b0b1  macSendFsCmd                                                    
100386a1  macSendMsg                                                      
00001afc  macSendMsgBufSize                                               
00001c54  macSendMsgDataSize                                              
00005711  macSendReceiveCmdIeee                                           
000081ad  macSendReceiveCmdSubG                                           
00010941  macSetDefaultsByPatch                                           
10039095  macSetDefaultsByPhyID                                           
10039bfd  macSetDefaultsByRE                                              
10038861  macSetEvent                                                     
10038845  macSetEvent16                                                   
1003753d  macSetSched                                                     
0000fb25  macSetupFsCmd                                                   
00009501  macSetupRATChanCompare                                          
0000ac45  macSetupReceiveCmd                                              
200023dc  macSfdDetectCback                                               
20002d13  macSleepState                                                   
20002aa0  macSpecUsecsPerSymbol                                           
20002440  macSrcExtAddrList                                               
200023c4  macSrcMatchIsAckAllPending                                      
20002cf7  macSrcMatchIsEnabled                                            
200023c5  macSrcResIndex                                                  
20002424  macSrcShortAddrList                                             
10034895  macStartBeaconPrepareCallback                                   
10035ad5  macStartBegin                                                   
10035311  macStartBroadcastPendTimer                                      
100363d9  macStartComplete                                                
10036309  macStartContinue                                                
10037d35  macStartFrameResponseTimer                                      
10037e15  macStartResponseTimer                                           
100359d5  macStartSetParams                                               
000015bc  macStartingSt                                                   
100388b1  macStateIdle                                                    
1003887d  macStateIdleOrPolling                                           
100388c9  macStateScanning                                                
20002be4  macStateTbl                                                     
00011065  macStopCmd                                                      
00014d05  macSymbolBCTimerPowerUp                                         
00013605  macSymbolTimerBCWakeUp                                          
00013229  macSymbolTimerCount                                             
00013635  macSymbolTimerICallTimerCback                                   
20003dbe  macSymbolTimerImpending                                         
0000c64d  macSymbolTimerInit                                              
00014045  macSymbolTimerPowerDown                                         
00014d1d  macSymbolTimerRestore                                           
20002aa8  macSymbolTimerRollover                                          
000100a5  macSymbolTimerRolloverCallback                                  
00013b05  macSymbolTimerSetRollover                                       
00012571  macSymbolTimerSetTrigger                                        
00014d35  macSymbolTimerSetTriggerRollover                                
20002aac  macSymbolTimerTrigger                                           
0000b681  macSymbolTimerTriggerCallback                                   
10034e8d  macSyncTimeoutCallback                                          
20000aa8  macTask                                                         
20003dbf  macTaskId                                                       
0000c3a5  macTaskInit                                                     
20002cf8  macTasksEvents                                                  
00014069  macTimer                                                        
20003da4  macTimerActive                                                  
00010109  macTimerAddTimer                                                
00012d19  macTimerAligned                                                 
000104d5  macTimerCancel                                                  
00013665  macTimerCheckUnAlignedQ                                         
00010535  macTimerGetNextTimer                                            
00013229  macTimerGetTime                                                 
00012d51  macTimerInit                                                    
20002a0c  macTimerNewRollover                                             
0000d0e9  macTimerRealign                                                 
000129c5  macTimerRecalcUnaligned                                         
0001498d  macTimerRemoveTimer                                             
20002a08  macTimerRollover                                                
00001870  macTimerRolloverValue                                           
00012d89  macTimerSetRollover                                             
00011579  macTimerStart                                                   
00014d4d  macTimerSyncRollover                                            
00011e25  macTimerUpdActive                                               
0000e4d1  macTimerUpdateSymbolTimer                                       
0000f7dd  macTrackPeriodCallback                                          
10034f3d  macTrackStartCallback                                           
10034fd1  macTrackTimeoutCallback                                         
00013df1  macTxAbortIsr                                                   
00014971  macTxAckIsr                                                     
00012dc1  macTxAckNotReceivedCallback                                     
000110b9  macTxAckReceivedCallback                                        
20003dc0  macTxActive                                                     
20002aed  macTxBe                                                         
10034421  macTxBeaconCompleteCallback                                     
0000a6ad  macTxChannelBusyCallback                                        
20002c3b  macTxCmdActive                                                  
100364f9  macTxCompleteCallback                                           
20002af6  macTxCsmaBackoffDelay                                           
10039e3d  macTxCsmaDelay                                                  
00012a01  macTxDecrypt                                                    
0000f849  macTxDoneCallback                                               
00003ed9  macTxFrame                                                      
00001c1e  macTxFrameFailed                                                
00012df9  macTxFrameIsr                                                   
000144b9  macTxFrameRetransmit                                            
00001c2c  macTxFrameSuccess                                               
20002aef  macTxGpInterframeDelay                                          
0001325d  macTxRequestCsmaRtcDelay                                        
20002cf6  macTxSlottedDelay                                               
20002aec  macTxSlottedDelayFactor                                         
200023e4  macTxTimestamp                                                  
000121a5  macTxTimestampCallback                                          
20002aee  macTxType                                                       
000125b1  macTxUpdateIE                                                   
20003dc1  macUnitBackoffPeriod                                            
10039ea5  macUpdateCsmPhyParam                                            
10038349  macUpdateHeaderIEPtr                                            
1003b9f1  macUpdatePanId                                                  
10038489  macUpdatePayloadIEPtr                                           
200012fc  macUser0Cfg                                                     
10039da1  macWSAsyncCnf                                                   
00014d65  macWrapper8ByteUnused                                           
000575f5  macWrapperAddDevice                                             
00005531  macWrapperAddKeyInitFCtr                                        
00007869  macWrapperDeleteAllDevices                                      
000064ad  macWrapperDeleteDevice                                          
0000616d  macWrapperDeleteKeyAndAssociatedDevices                         
1003c6e9  macWrapperGetDefaultSourceKey                                   
100387f9  mac_msg_deallocate                                              
0001016d  main                                                            
20002d00  main_func_sp                                                    
0001386d  malloc                                                          
0001408d  memcmp                                                          
0000d185  memcpy                                                          
0000ec45  memset                                                          
2000035c  menuBuff                                                        
00001b7c  msacbackSizeTable                                               
20001d20  numJoinDevStatusLine                                            
20002c44  numRfCmd                                                        
20002c45  numRxCmd                                                        
20002c46  numRxPostCmd                                                    
20002af5  numTx                                                           
20003da8  nvsCC26XXObjects                                                
00015627  osalHeapAllocFxn                                                
0001562d  osalHeapFreeFxn                                                 
0001182d  osalHeapGetStatsFxn                                             
0000ebc1  osalHeapInitFxn                                                 
000156d5  osalHeapIsBlockingFxn                                           
00001c90  outPinStrengths                                                 
00001c00  outPinTypes                                                     
20002c50  pClockHandleEDScan                                              
20000a4c  pMacCbackCheckPending                                           
20000a48  pMacCbackQueryRetransmit                                        
200029e0  pMacDataTx                                                      
20002ad0  pMacEnhancedAck                                                 
200023e8  pMacRadioConfig                                                 
20002850  pMaxPower                                                       
20002b98  pOverrides_2gfsk50kbps154g                                      
20002848  pRfMode                                                         
2000284c  pRfPowerTable                                                   
20001cdf  permitJoining                                                   
20003798  pinHandleTable                                                  
20002c6c  pinLowerBound                                                   
20002c68  pinUpperBound                                                   
00014257  radioComputeED                                                  
200023c8  reqAccessAlloc                                                  
000016f0  resourceDB                                                      
0000222d  rfSelect                                                        
00013a29  rf_patch_cpe_prop                                               
200023ca  rxCmdHandle                                                     
20003dc2  rxFhRsl                                                         
20003aa5  rxPromiscuousMode                                               
20003ab4  rxRadioBufferPtr                                                
20003aa8  rxSeqNum                                                        
00013b31  sAddrCmp                                                        
000150b5  sAddrCpy                                                        
000149c5  sAddrExtCmp                                                     
000150c9  sAddrExtCpy                                                     
20001cde  savedCllcState                                                  
1002fddb  strlen                                                          
00013edb  strncat                                                         
000132f9  strncpy                                                         
0000919d  strtol                                                          
20002020  taskCnt                                                         
20002040  taskTbl                                                         
200022f8  ti_sysbios_BIOS_Module__state__V                                
1002e4e1  ti_sysbios_BIOS_RtsGateProxy_Handle__label__S                   
1002eb79  ti_sysbios_BIOS_RtsGateProxy_Params__init__S                    
1002ec77  ti_sysbios_BIOS_RtsGateProxy_enter__E                           
1002ec7b  ti_sysbios_BIOS_RtsGateProxy_leave__E                           
1002ec9b  ti_sysbios_BIOS_RtsGateProxy_query__E                           
1002ec9b  ti_sysbios_BIOS_RtsGateProxy_query__E                           
00013695  ti_sysbios_BIOS_atExitFunc__I                                   
00014ef5  ti_sysbios_BIOS_exitFunc__I                                     
1002ea85  ti_sysbios_BIOS_exit__E                                         
1002e9fd  ti_sysbios_BIOS_getCpuFreq__E                                   
1002ea95  ti_sysbios_BIOS_getThreadType__E                                
1002d01b  ti_sysbios_BIOS_linkedWithIncorrectBootLibrary__E               
0000ecb7  ti_sysbios_BIOS_nullFunc__I                                     
000140f9  ti_sysbios_BIOS_registerRTSLock__I                              
0001411d  ti_sysbios_BIOS_removeRTSLock__I                                
000145d9  ti_sysbios_BIOS_rtsLock__I                                      
00014ddd  ti_sysbios_BIOS_rtsUnlock__I                                    
1002ea11  ti_sysbios_BIOS_setThreadType__E                                
000136c5  ti_sysbios_BIOS_startFunc__I                                    
1002eaa5  ti_sysbios_BIOS_start__E                                        
0000c4fd  ti_sysbios_family_arm_cc26xx_Boot_trimDevice                    
0000068e  ti_sysbios_family_arm_cc26xx_Timer_Module__id__C                
1002e15d  ti_sysbios_family_arm_cc26xx_Timer_Module__startupDone__S       
200023bc  ti_sysbios_family_arm_cc26xx_Timer_Module__state__V             
1002dfa5  ti_sysbios_family_arm_cc26xx_Timer_Module_startup__E            
200027f8  ti_sysbios_family_arm_cc26xx_Timer_Object__table__V             
000145f9  ti_sysbios_family_arm_cc26xx_Timer_dynamicStub__E               
000006c4  ti_sysbios_family_arm_cc26xx_Timer_funcHookCH1__C               
00000724  ti_sysbios_family_arm_cc26xx_Timer_funcHookCH2__C               
00015105  ti_sysbios_family_arm_cc26xx_Timer_getCount64__E                
00012ea1  ti_sysbios_family_arm_cc26xx_Timer_getCurrentTick__E            
1002ec7f  ti_sysbios_family_arm_cc26xx_Timer_getExpiredTicks__E           
00014141  ti_sysbios_family_arm_cc26xx_Timer_getMaxTicks__E               
1002ec83  ti_sysbios_family_arm_cc26xx_Timer_getPeriod__E                 
000136f5  ti_sysbios_family_arm_cc26xx_Timer_initDevice__I                
1002c709  ti_sysbios_family_arm_cc26xx_Timer_periodicStub__E              
1002dfd1  ti_sysbios_family_arm_cc26xx_Timer_postInit__I                  
00012fe9  ti_sysbios_family_arm_cc26xx_Timer_setNextTick__E               
1002ec87  ti_sysbios_family_arm_cc26xx_Timer_setPeriod__E                 
00012631  ti_sysbios_family_arm_cc26xx_Timer_setThreshold__I              
0000e855  ti_sysbios_family_arm_cc26xx_Timer_start__E                     
000006fc  ti_sysbios_family_arm_cc26xx_Timer_startupNeeded__C             
1002dcf1  ti_sysbios_family_arm_cc26xx_Timer_startup__E                   
200022e4  ti_sysbios_family_arm_cc26xx_TimestampProvider_Module__state__V 
1002e42d  ti_sysbios_family_arm_cc26xx_TimestampProvider_Module_startup__E
0001538b  ti_sysbios_family_arm_cc26xx_TimestampProvider_get32__E         
1002dffd  ti_sysbios_family_arm_cc26xx_TimestampProvider_get64__E         
1002eb3d  ti_sysbios_family_arm_cc26xx_TimestampProvider_getFreq__E       
0000089c  ti_sysbios_family_arm_cc26xx_TimestampProvider_useClockTimer__C 
00000728  ti_sysbios_family_arm_m3_Hwi_E_NMI__C                           
0000082c  ti_sysbios_family_arm_m3_Hwi_E_alreadyDefined__C                
0000078c  ti_sysbios_family_arm_m3_Hwi_E_busFault__C                      
000008b4  ti_sysbios_family_arm_m3_Hwi_E_debugMon__C                      
000008a8  ti_sysbios_family_arm_m3_Hwi_E_hardFault__C                     
000008d0  ti_sysbios_family_arm_m3_Hwi_E_hwiLimitExceeded__C              
00000924  ti_sysbios_family_arm_m3_Hwi_E_memFault__C                      
00000700  ti_sysbios_family_arm_m3_Hwi_E_noIsr__C                         
000006cc  ti_sysbios_family_arm_m3_Hwi_E_reserved__C                      
000008b8  ti_sysbios_family_arm_m3_Hwi_E_svCall__C                        
00000914  ti_sysbios_family_arm_m3_Hwi_E_usageFault__C                    
1002e451  ti_sysbios_family_arm_m3_Hwi_Handle__label__S                   
1002ce71  ti_sysbios_family_arm_m3_Hwi_Instance_finalize__E               
1002c79d  ti_sysbios_family_arm_m3_Hwi_Instance_init__E                   
20002d10  ti_sysbios_family_arm_m3_Hwi_Module_State_0_excActive__A        
20002d04  ti_sysbios_family_arm_m3_Hwi_Module_State_0_excContext__A       
20002d08  ti_sysbios_family_arm_m3_Hwi_Module_State_0_excStack__A         
0000068c  ti_sysbios_family_arm_m3_Hwi_Module__id__C                      
20002c78  ti_sysbios_family_arm_m3_Hwi_Module__root__V                    
1002e185  ti_sysbios_family_arm_m3_Hwi_Module__startupDone__S             
20002388  ti_sysbios_family_arm_m3_Hwi_Module__state__V                   
1002d3c9  ti_sysbios_family_arm_m3_Hwi_Module_startup__E                  
000006e4  ti_sysbios_family_arm_m3_Hwi_NUM_INTERRUPTS__C                  
000008e0  ti_sysbios_family_arm_m3_Hwi_Object__DESC__C                    
1002fc10  ti_sysbios_family_arm_m3_Hwi_Object__PARAMS__C                  
00000904  ti_sysbios_family_arm_m3_Hwi_Object__count__C                   
1002e1ad  ti_sysbios_family_arm_m3_Hwi_Object__delete__S                  
1002e1d5  ti_sysbios_family_arm_m3_Hwi_Object__get__S                     
00000694  ti_sysbios_family_arm_m3_Hwi_Object__table__C                   
20002bb4  ti_sysbios_family_arm_m3_Hwi_Object__table__V                   
1002eb49  ti_sysbios_family_arm_m3_Hwi_Params__init__S                    
00000918  ti_sysbios_family_arm_m3_Hwi_ccr__C                             
1002d421  ti_sysbios_family_arm_m3_Hwi_construct                          
00012a3d  ti_sysbios_family_arm_m3_Hwi_construct2__E                      
1002d1a1  ti_sysbios_family_arm_m3_Hwi_create                             
1002ec8b  ti_sysbios_family_arm_m3_Hwi_delete                             
1002e475  ti_sysbios_family_arm_m3_Hwi_destruct                           
1002eb55  ti_sysbios_family_arm_m3_Hwi_disableFxn__E                      
1002d8d9  ti_sysbios_family_arm_m3_Hwi_disableInterrupt__E                
1002cedd  ti_sysbios_family_arm_m3_Hwi_dispatchC__I                       
20003590  ti_sysbios_family_arm_m3_Hwi_dispatchTable                      
1002f931  ti_sysbios_family_arm_m3_Hwi_dispatch__I                        
1002ec29  ti_sysbios_family_arm_m3_Hwi_doSwiRestore__I                    
1002ec41  ti_sysbios_family_arm_m3_Hwi_doTaskRestore__I                   
1002eb61  ti_sysbios_family_arm_m3_Hwi_enableFxn__E                       
1002d91d  ti_sysbios_family_arm_m3_Hwi_enableInterrupt__E                 
1002b82d  ti_sysbios_family_arm_m3_Hwi_excBusFault__I                     
1002c31d  ti_sysbios_family_arm_m3_Hwi_excDebugMon__I                     
1002b405  ti_sysbios_family_arm_m3_Hwi_excDumpRegs__I                     
1002bda9  ti_sysbios_family_arm_m3_Hwi_excFillContext__I                  
1002fb39  ti_sysbios_family_arm_m3_Hwi_excHandlerAsm__I                   
00000760  ti_sysbios_family_arm_m3_Hwi_excHandlerFunc__C                  
1002beb5  ti_sysbios_family_arm_m3_Hwi_excHandlerMax__I                   
1002ddf5  ti_sysbios_family_arm_m3_Hwi_excHandler__I                      
1002c185  ti_sysbios_family_arm_m3_Hwi_excHardFault__I                    
00001d04  ti_sysbios_family_arm_m3_Hwi_excHookFuncs__A                    
000005d4  ti_sysbios_family_arm_m3_Hwi_excHookFuncs__C                    
1002bc61  ti_sysbios_family_arm_m3_Hwi_excMemFault__I                     
1002da71  ti_sysbios_family_arm_m3_Hwi_excNmi__I                          
1002d961  ti_sysbios_family_arm_m3_Hwi_excNoIsr__I                        
1002d62d  ti_sysbios_family_arm_m3_Hwi_excReserved__I                     
1002d9a5  ti_sysbios_family_arm_m3_Hwi_excSvCall__I                       
1002b9a1  ti_sysbios_family_arm_m3_Hwi_excUsageFault__I                   
1002daad  ti_sysbios_family_arm_m3_Hwi_getHandle__E                       
1002d9e9  ti_sysbios_family_arm_m3_Hwi_getStackInfo__E                    
1002c831  ti_sysbios_family_arm_m3_Hwi_initNVIC__E                        
1002fab9  ti_sysbios_family_arm_m3_Hwi_initStacks__E                      
1002fa11  ti_sysbios_family_arm_m3_Hwi_interruptsAreDisabledButShouldNotBe
000007c0  ti_sysbios_family_arm_m3_Hwi_nullIsrFunc__C                     
00000894  ti_sysbios_family_arm_m3_Hwi_numSparseInterrupts__C             
e000e000  ti_sysbios_family_arm_m3_Hwi_nvic                               
1002fb11  ti_sysbios_family_arm_m3_Hwi_pendSV__I                          
1002e8fd  ti_sysbios_family_arm_m3_Hwi_plug__E                            
1002c3d9  ti_sysbios_family_arm_m3_Hwi_postInit__I                        
0001527d  ti_sysbios_family_arm_m3_Hwi_post__E                            
00000824  ti_sysbios_family_arm_m3_Hwi_priGroup__C                        
20000000  ti_sysbios_family_arm_m3_Hwi_ramVectors                         
00000000  ti_sysbios_family_arm_m3_Hwi_resetVectors                       
1002ec47  ti_sysbios_family_arm_m3_Hwi_restoreFxn__E                      
1002fb35  ti_sysbios_family_arm_m3_Hwi_return                             
00015633  ti_sysbios_family_arm_m3_Hwi_setFunc__E                         
1002e919  ti_sysbios_family_arm_m3_Hwi_setPriority__E                     
1002ec31  ti_sysbios_family_arm_m3_Hwi_startup__E                         
1002e935  ti_sysbios_family_arm_m3_Hwi_switchFromBootStack__E             
1002ec8f  ti_sysbios_family_arm_m3_TaskSupport_Module__startupDone__S     
1002fa2d  ti_sysbios_family_arm_m3_TaskSupport_buildTaskStack             
1002eab5  ti_sysbios_family_arm_m3_TaskSupport_getStackAlignment__E       
1002fb8f  ti_sysbios_family_arm_m3_TaskSupport_glue                       
000006e0  ti_sysbios_family_arm_m3_TaskSupport_stackAlignment__C          
1002dae9  ti_sysbios_family_arm_m3_TaskSupport_start__E                   
1002fb77  ti_sysbios_family_arm_m3_TaskSupport_swap__E                    
1002fb59  ti_sysbios_family_xxx_Hwi_switchAndRunFunc                      
1002e499  ti_sysbios_gates_GateHwi_Handle__label__S                       
1002d5d7  ti_sysbios_gates_GateHwi_Instance_init__E                       
000007e0  ti_sysbios_gates_GateHwi_Module__FXNS__C                        
00000750  ti_sysbios_gates_GateHwi_Module__id__C                          
20002c80  ti_sysbios_gates_GateHwi_Module__root__V                        
0000086c  ti_sysbios_gates_GateHwi_Object__DESC__C                        
1002fd00  ti_sysbios_gates_GateHwi_Object__PARAMS__C                      
1002e029  ti_sysbios_gates_GateHwi_Object__create__S                      
1002e4bd  ti_sysbios_gates_GateHwi_Object__delete__S                      
1002eb6d  ti_sysbios_gates_GateHwi_enter__E                               
1002ec4d  ti_sysbios_gates_GateHwi_leave__E                               
1002ec93  ti_sysbios_gates_GateHwi_query__E                               
00013b5d  ti_sysbios_gates_GateMutexPri_Handle__label__S                  
00001d40  ti_sysbios_gates_GateMutexPri_Instance_State_pendQ__O           
0001528d  ti_sysbios_gates_GateMutexPri_Instance_finalize__E              
00014df5  ti_sysbios_gates_GateMutexPri_Instance_init__E                  
000019d4  ti_sysbios_gates_GateMutexPri_Module__FXNS__C                   
20002c88  ti_sysbios_gates_GateMutexPri_Module__root__V                   
00001a38  ti_sysbios_gates_GateMutexPri_Object__DESC__C                   
00001b14  ti_sysbios_gates_GateMutexPri_Object__PARAMS__C                 
00013725  ti_sysbios_gates_GateMutexPri_Object__create__S                 
00014165  ti_sysbios_gates_GateMutexPri_Object__delete__S                 
000154ad  ti_sysbios_gates_GateMutexPri_Params__init__S                   
00013755  ti_sysbios_gates_GateMutexPri_create                            
0000dc65  ti_sysbios_gates_GateMutexPri_enter__E                          
00013393  ti_sysbios_gates_GateMutexPri_insertPri__I                      
0000f151  ti_sysbios_gates_GateMutexPri_leave__E                          
000156d9  ti_sysbios_gates_GateMutexPri_query__E                          
1002e4e1  ti_sysbios_gates_GateMutex_Handle__label__S                     
000005fc  ti_sysbios_gates_GateMutex_Instance_State_sem__O                
1002ec53  ti_sysbios_gates_GateMutex_Instance_finalize__E                 
1002e9bb  ti_sysbios_gates_GateMutex_Instance_init__E                     
00000664  ti_sysbios_gates_GateMutex_Module__FXNS__C                      
000007c6  ti_sysbios_gates_GateMutex_Module__id__C                        
20002c90  ti_sysbios_gates_GateMutex_Module__root__V                      
000005d8  ti_sysbios_gates_GateMutex_Object__DESC__C                      
1002fd18  ti_sysbios_gates_GateMutex_Object__PARAMS__C                    
1002de25  ti_sysbios_gates_GateMutex_Object__create__S                    
1002e1fd  ti_sysbios_gates_GateMutex_Object__delete__S                    
20002940  ti_sysbios_gates_GateMutex_Object__table__V                     
1002eb79  ti_sysbios_gates_GateMutex_Params__init__S                      
1002e055  ti_sysbios_gates_GateMutex_construct                            
1002de55  ti_sysbios_gates_GateMutex_create                               
1002ec97  ti_sysbios_gates_GateMutex_delete                               
1002e505  ti_sysbios_gates_GateMutex_destruct                             
1002e225  ti_sysbios_gates_GateMutex_enter__E                             
1002eb05  ti_sysbios_gates_GateMutex_leave__E                             
1002ec9b  ti_sysbios_gates_GateMutex_query__E                             
1002e451  ti_sysbios_hal_Hwi_HwiProxy_Handle__label__S                    
1002e185  ti_sysbios_hal_Hwi_HwiProxy_Module__startupDone__S              
1002eb49  ti_sysbios_hal_Hwi_HwiProxy_Params__init__S                     
1002ec9f  ti_sysbios_hal_Hwi_HwiProxy_create                              
1002eca3  ti_sysbios_hal_Hwi_HwiProxy_delete                              
1002d8d9  ti_sysbios_hal_Hwi_HwiProxy_disableInterrupt__E                 
1002d8d9  ti_sysbios_hal_Hwi_HwiProxy_disableInterrupt__E                 
1002d91d  ti_sysbios_hal_Hwi_HwiProxy_enableInterrupt__E                  
1002d91d  ti_sysbios_hal_Hwi_HwiProxy_enableInterrupt__E                  
1002d9e9  ti_sysbios_hal_Hwi_HwiProxy_getStackInfo__E                     
1002d9e9  ti_sysbios_hal_Hwi_HwiProxy_getStackInfo__E                     
0001527d  ti_sysbios_hal_Hwi_HwiProxy_post__E                             
1002ec31  ti_sysbios_hal_Hwi_HwiProxy_startup__E                          
1002ec31  ti_sysbios_hal_Hwi_HwiProxy_startup__E                          
1002e935  ti_sysbios_hal_Hwi_HwiProxy_switchFromBootStack__E              
1002e935  ti_sysbios_hal_Hwi_HwiProxy_switchFromBootStack__E              
1002ec15  ti_sysbios_hal_Hwi_Instance_finalize__E                         
1002e8dd  ti_sysbios_hal_Hwi_Instance_init__E                             
20002c98  ti_sysbios_hal_Hwi_Module__root__V                              
1002ea61  ti_sysbios_hal_Hwi_Module_startup__E                            
00000804  ti_sysbios_hal_Hwi_Object__DESC__C                              
1002fc40  ti_sysbios_hal_Hwi_Object__PARAMS__C                            
1002e24d  ti_sysbios_hal_Hwi_Object__delete__S                            
1002d1fd  ti_sysbios_hal_Hwi_create                                       
1002eca7  ti_sysbios_hal_Hwi_delete                                       
1002d8d9  ti_sysbios_hal_Hwi_disableInterrupt__E                          
1002d8d9  ti_sysbios_hal_Hwi_disableInterrupt__E                          
1002d91d  ti_sysbios_hal_Hwi_enableInterrupt__E                           
1002d91d  ti_sysbios_hal_Hwi_enableInterrupt__E                           
1002d9e9  ti_sysbios_hal_Hwi_getStackInfo__E                              
1002d9e9  ti_sysbios_hal_Hwi_getStackInfo__E                              
1002df75  ti_sysbios_hal_Hwi_initStack                                    
0001527d  ti_sysbios_hal_Hwi_post__E                                      
1002ec31  ti_sysbios_hal_Hwi_startup__E                                   
1002ec31  ti_sysbios_hal_Hwi_startup__E                                   
1002e935  ti_sysbios_hal_Hwi_switchFromBootStack__E                       
1002e935  ti_sysbios_hal_Hwi_switchFromBootStack__E                       
00013b89  ti_sysbios_heaps_HeapCallback_Handle__label__S                  
0001529d  ti_sysbios_heaps_HeapCallback_Instance_finalize__E              
00014e0d  ti_sysbios_heaps_HeapCallback_Instance_init__E                  
00001938  ti_sysbios_heaps_HeapCallback_Module__FXNS__C                   
20002ca0  ti_sysbios_heaps_HeapCallback_Module__root__V                   
00012671  ti_sysbios_heaps_HeapCallback_Module_startup__E                 
00001a58  ti_sysbios_heaps_HeapCallback_Object__DESC__C                   
00001ab0  ti_sysbios_heaps_HeapCallback_Object__PARAMS__C                 
00001d44  ti_sysbios_heaps_HeapCallback_Object__count__C                  
00013785  ti_sysbios_heaps_HeapCallback_Object__create__S                 
00014189  ti_sysbios_heaps_HeapCallback_Object__delete__S                 
00015119  ti_sysbios_heaps_HeapCallback_Object__get__S                    
20002c54  ti_sysbios_heaps_HeapCallback_Object__table__V                  
00001d48  ti_sysbios_heaps_HeapCallback_allocInstFxn__C                   
000152ad  ti_sysbios_heaps_HeapCallback_alloc__E                          
00001d4c  ti_sysbios_heaps_HeapCallback_createInstFxn__C                  
000156dd  ti_sysbios_heaps_HeapCallback_defaultCreate                     
0000f237  ti_sysbios_heaps_HeapCallback_defaultDelete                     
00001d50  ti_sysbios_heaps_HeapCallback_deleteInstFxn__C                  
00001d54  ti_sysbios_heaps_HeapCallback_freeInstFxn__C                    
000152bd  ti_sysbios_heaps_HeapCallback_free__E                           
00001d58  ti_sysbios_heaps_HeapCallback_getStatsInstFxn__C                
000152cd  ti_sysbios_heaps_HeapCallback_getStats__E                       
00001d5c  ti_sysbios_heaps_HeapCallback_initInstFxn__C                    
00001d60  ti_sysbios_heaps_HeapCallback_isBlockingInstFxn__C              
000152dd  ti_sysbios_heaps_HeapCallback_isBlocking__E                     
00000920  ti_sysbios_heaps_HeapMem_E_memory__C                            
1002e529  ti_sysbios_heaps_HeapMem_Handle__label__S                       
1002d849  ti_sysbios_heaps_HeapMem_Instance_init__E                       
1002e4e1  ti_sysbios_heaps_HeapMem_Module_GateProxy_Handle__label__S      
1002eb79  ti_sysbios_heaps_HeapMem_Module_GateProxy_Params__init__S       
1002ecab  ti_sysbios_heaps_HeapMem_Module_GateProxy_enter__E              
1002ecaf  ti_sysbios_heaps_HeapMem_Module_GateProxy_leave__E              
1002ec9b  ti_sysbios_heaps_HeapMem_Module_GateProxy_query__E              
1002ec9b  ti_sysbios_heaps_HeapMem_Module_GateProxy_query__E              
00000764  ti_sysbios_heaps_HeapMem_Module__FXNS__C                        
000006f8  ti_sysbios_heaps_HeapMem_Module__gateObj__C                     
0000075c  ti_sysbios_heaps_HeapMem_Module__id__C                          
20002ca8  ti_sysbios_heaps_HeapMem_Module__root__V                        
0000092c  ti_sysbios_heaps_HeapMem_Object__DESC__C                        
1002fc94  ti_sysbios_heaps_HeapMem_Object__PARAMS__C                      
00000890  ti_sysbios_heaps_HeapMem_Object__count__C                       
1002de85  ti_sysbios_heaps_HeapMem_Object__create__S                      
1002e54d  ti_sysbios_heaps_HeapMem_Object__delete__S                      
1002e275  ti_sysbios_heaps_HeapMem_Object__get__S                         
000006c0  ti_sysbios_heaps_HeapMem_Object__table__C                       
1002cb51  ti_sysbios_heaps_HeapMem_allocUnprotected__E                    
1002d259  ti_sysbios_heaps_HeapMem_alloc__E                               
1002d479  ti_sysbios_heaps_HeapMem_freeUnprotected__E                     
1002dbd9  ti_sysbios_heaps_HeapMem_free__E                                
1002d6cd  ti_sysbios_heaps_HeapMem_getStats__E                            
1002dd25  ti_sysbios_heaps_HeapMem_init__I                                
1002ec59  ti_sysbios_heaps_HeapMem_isBlocking__E                          
00000844  ti_sysbios_heaps_HeapMem_reqAlign__C                            
1002eb13  ti_sysbios_heaps_HeapMem_restore__E                             
000006bc  ti_sysbios_heaps_HeapTrack_A_bufOverflow__C                     
00000840  ti_sysbios_heaps_HeapTrack_A_doubleFree__C                      
000006d0  ti_sysbios_heaps_HeapTrack_A_notEmpty__C                        
1002e571  ti_sysbios_heaps_HeapTrack_Handle__label__S                     
1002fd9c  ti_sysbios_heaps_HeapTrack_Instance_State_trackQueue__O         
1002c5d9  ti_sysbios_heaps_HeapTrack_Instance_finalize__E                 
1002e595  ti_sysbios_heaps_HeapTrack_Instance_init__E                     
00000600  ti_sysbios_heaps_HeapTrack_Module__FXNS__C                      
1002fda0  ti_sysbios_heaps_HeapTrack_Module__diagsEnabled__C              
1002fda4  ti_sysbios_heaps_HeapTrack_Module__diagsIncluded__C             
1002fda8  ti_sysbios_heaps_HeapTrack_Module__diagsMask__C                 
0000091c  ti_sysbios_heaps_HeapTrack_Module__id__C                        
1002fd80  ti_sysbios_heaps_HeapTrack_Object__PARAMS__C                    
1002e081  ti_sysbios_heaps_HeapTrack_Object__create__S                    
1002e5b9  ti_sysbios_heaps_HeapTrack_Object__delete__S                    
1002eb85  ti_sysbios_heaps_HeapTrack_Params__init__S                      
1002c8c1  ti_sysbios_heaps_HeapTrack_alloc__E                             
1002e0ad  ti_sysbios_heaps_HeapTrack_create                               
1002bb01  ti_sysbios_heaps_HeapTrack_free__E                              
1002e5dd  ti_sysbios_heaps_HeapTrack_getStats__E                          
1002eb91  ti_sysbios_heaps_HeapTrack_isBlocking__E                        
1002e9d1  ti_sysbios_knl_Clock_Instance_finalize__E                       
1002dd59  ti_sysbios_knl_Clock_Instance_init__E                           
000008bc  ti_sysbios_knl_Clock_Module_State_clockQ__O                     
20002cb0  ti_sysbios_knl_Clock_Module__root__V                            
200022b8  ti_sysbios_knl_Clock_Module__state__V                           
1002e601  ti_sysbios_knl_Clock_Module_startup__E                          
00000638  ti_sysbios_knl_Clock_Object__DESC__C                            
1002fcb8  ti_sysbios_knl_Clock_Object__PARAMS__C                          
1002e29d  ti_sysbios_knl_Clock_Object__delete__S                          
20002b58  ti_sysbios_knl_Clock_Object__table__V                           
1002eb9d  ti_sysbios_knl_Clock_Params__init__S                            
1002e15d  ti_sysbios_knl_Clock_TimerProxy_Module__startupDone__S          
1002eac5  ti_sysbios_knl_Clock_TimerProxy_getCurrentTick__E               
1002ecb3  ti_sysbios_knl_Clock_TimerProxy_getExpiredTicks__E              
1002ead5  ti_sysbios_knl_Clock_TimerProxy_getMaxTicks__E                  
1002ecb7  ti_sysbios_knl_Clock_TimerProxy_getPeriod__E                    
1002eae5  ti_sysbios_knl_Clock_TimerProxy_setNextTick__E                  
1002dcf1  ti_sysbios_knl_Clock_TimerProxy_startup__E                      
1002dcf1  ti_sysbios_knl_Clock_TimerProxy_startup__E                      
1002e625  ti_sysbios_knl_Clock_addI__E                                    
1002dd8d  ti_sysbios_knl_Clock_construct                                  
1002db25  ti_sysbios_knl_Clock_create                                     
1002ecbb  ti_sysbios_knl_Clock_delete                                     
1002e649  ti_sysbios_knl_Clock_destruct                                   
0001512d  ti_sysbios_knl_Clock_doTick__I                                  
00013bb5  ti_sysbios_knl_Clock_getTicksUntilInterrupt__E                  
1002dc11  ti_sysbios_knl_Clock_getTicks__E                                
00013c5f  ti_sysbios_knl_Clock_getTimeout__E                              
1002eba9  ti_sysbios_knl_Clock_getTimerHandle__E                          
000156e1  ti_sysbios_knl_Clock_isActive__E                                
1002dbd7  ti_sysbios_knl_Clock_logTick__E                                 
1002ecbf  ti_sysbios_knl_Clock_removeI__E                                 
1002e81d  ti_sysbios_knl_Clock_scheduleNextTick__E                        
00014f0b  ti_sysbios_knl_Clock_setFunc__E                                 
1002ecc3  ti_sysbios_knl_Clock_setTimeout__E                              
1002c94d  ti_sysbios_knl_Clock_startI__E                                  
1002e9e7  ti_sysbios_knl_Clock_start__E                                   
1002e2c5  ti_sysbios_knl_Clock_stop__E                                    
000007c4  ti_sysbios_knl_Clock_tickMode__C                                
00001d64  ti_sysbios_knl_Clock_tickPeriod__C                              
000006e8  ti_sysbios_knl_Clock_triggerClock__C                            
1002dfa3  ti_sysbios_knl_Clock_triggerFunc__I                             
1002cbc5  ti_sysbios_knl_Clock_walkQueueDynamic__E                        
1002c53d  ti_sysbios_knl_Clock_workFuncDynamic__E                         
1002cad9  ti_sysbios_knl_Clock_workFunc__E                                
000008a0  ti_sysbios_knl_Event_Instance_State_pendQ__O                    
1002ec1f  ti_sysbios_knl_Event_Instance_init__E                           
20002cb8  ti_sysbios_knl_Event_Module__root__V                            
000005b4  ti_sysbios_knl_Event_Object__DESC__C                            
1002fd30  ti_sysbios_knl_Event_Object__PARAMS__C                          
1002e66d  ti_sysbios_knl_Event_Object__delete__S                          
1002ebb5  ti_sysbios_knl_Event_Params__init__S                            
1002e83d  ti_sysbios_knl_Event_checkEvents__I                             
1002e0d9  ti_sysbios_knl_Event_construct                                  
1002deb5  ti_sysbios_knl_Event_create                                     
1002ecc7  ti_sysbios_knl_Event_delete                                     
1002e85d  ti_sysbios_knl_Event_destruct                                   
1002e105  ti_sysbios_knl_Event_pendTimeout__I                             
1002c0a5  ti_sysbios_knl_Event_pend__E                                    
1002cfb3  ti_sysbios_knl_Event_post__E                                    
1002ea73  ti_sysbios_knl_Event_sync__E                                    
00001d68  ti_sysbios_knl_Idle_funcList__A                                 
0000062c  ti_sysbios_knl_Idle_funcList__C                                 
1002ec39  ti_sysbios_knl_Idle_loop__E                                     
1002e2ed  ti_sysbios_knl_Idle_run__E                                      
0000065c  ti_sysbios_knl_Mailbox_Instance_State_dataQue__O                
000007dc  ti_sysbios_knl_Mailbox_Instance_State_dataSem__O                
00000954  ti_sysbios_knl_Mailbox_Instance_State_freeQue__O                
00000830  ti_sysbios_knl_Mailbox_Instance_State_freeSem__O                
1002d2b5  ti_sysbios_knl_Mailbox_Instance_finalize__E                     
1002c48d  ti_sysbios_knl_Mailbox_Instance_init__E                         
20002cc0  ti_sysbios_knl_Mailbox_Module__root__V                          
1002da2d  ti_sysbios_knl_Mailbox_Module_startup__E                        
000007a0  ti_sysbios_knl_Mailbox_Object__DESC__C                          
1002fbdc  ti_sysbios_knl_Mailbox_Object__PARAMS__C                        
000008ac  ti_sysbios_knl_Mailbox_Object__count__C                         
1002e315  ti_sysbios_knl_Mailbox_Object__delete__S                        
1002e33d  ti_sysbios_knl_Mailbox_Object__get__S                           
00000690  ti_sysbios_knl_Mailbox_Object__table__C                         
1002ebc1  ti_sysbios_knl_Mailbox_Params__init__S                          
1002d4d1  ti_sysbios_knl_Mailbox_construct                                
1002d311  ti_sysbios_knl_Mailbox_create                                   
1002eccb  ti_sysbios_knl_Mailbox_delete                                   
1002e691  ti_sysbios_knl_Mailbox_destruct                                 
00000898  ti_sysbios_knl_Mailbox_maxTypeAlign__C                          
1002d581  ti_sysbios_knl_Mailbox_pend__E                                  
1002e405  ti_sysbios_knl_Mailbox_postInit__I                              
1002cf49  ti_sysbios_knl_Mailbox_post__E                                  
1002ec5f  ti_sysbios_knl_Queue_Instance_init__E                           
20002cc8  ti_sysbios_knl_Queue_Module__root__V                            
00000704  ti_sysbios_knl_Queue_Object__DESC__C                            
1002fd48  ti_sysbios_knl_Queue_Object__PARAMS__C                          
00000794  ti_sysbios_knl_Queue_Object__count__C                           
1002e6b5  ti_sysbios_knl_Queue_Object__delete__S                          
1002e87d  ti_sysbios_knl_Queue_Object__get__S                             
00000834  ti_sysbios_knl_Queue_Object__table__C                           
1002dee5  ti_sysbios_knl_Queue_construct                                  
1002df15  ti_sysbios_knl_Queue_create                                     
1002eccf  ti_sysbios_knl_Queue_delete                                     
1002ebcd  ti_sysbios_knl_Queue_dequeue__E                                 
1002e89d  ti_sysbios_knl_Queue_destruct                                   
1002ec65  ti_sysbios_knl_Queue_elemClear__E                               
1002eb21  ti_sysbios_knl_Queue_empty__E                                   
1002ebd9  ti_sysbios_knl_Queue_enqueue__E                                 
1002e951  ti_sysbios_knl_Queue_get__E                                     
1002ecd3  ti_sysbios_knl_Queue_head__E                                    
000154b9  ti_sysbios_knl_Queue_insert__E                                  
1002ecd7  ti_sysbios_knl_Queue_next__E                                    
1002e96d  ti_sysbios_knl_Queue_put__E                                     
1002eb2f  ti_sysbios_knl_Queue_remove__E                                  
000008d8  ti_sysbios_knl_Semaphore_Instance_State_pendQ__O                
1002e6d9  ti_sysbios_knl_Semaphore_Instance_finalize__E                   
1002d01d  ti_sysbios_knl_Semaphore_Instance_init__E                       
20002cd0  ti_sysbios_knl_Semaphore_Module__root__V                        
0000084c  ti_sysbios_knl_Semaphore_Object__DESC__C                        
1002fcdc  ti_sysbios_knl_Semaphore_Object__PARAMS__C                      
1002e365  ti_sysbios_knl_Semaphore_Object__delete__S                      
1002ebe5  ti_sysbios_knl_Semaphore_Params__init__S                        
1002ddc1  ti_sysbios_knl_Semaphore_construct                              
1002dc49  ti_sysbios_knl_Semaphore_create                                 
1002ecdb  ti_sysbios_knl_Semaphore_delete                                 
1002e6fd  ti_sysbios_knl_Semaphore_destruct                               
00000838  ti_sysbios_knl_Semaphore_eventPost__C                           
00000660  ti_sysbios_knl_Semaphore_eventSync__C                           
1002e131  ti_sysbios_knl_Semaphore_pendTimeout__I                         
1002bfb1  ti_sysbios_knl_Semaphore_pend__E                                
1002cd21  ti_sysbios_knl_Semaphore_post__E                                
1002e721  ti_sysbios_knl_Swi_Handle__label__S                             
1002e42b  ti_sysbios_knl_Swi_Instance_finalize__E                         
1002d36d  ti_sysbios_knl_Swi_Instance_init__E                             
20002a10  ti_sysbios_knl_Swi_Module_State_0_readyQ__A                     
000006f2  ti_sysbios_knl_Swi_Module__id__C                                
20002cd8  ti_sysbios_knl_Swi_Module__root__V                              
2000231c  ti_sysbios_knl_Swi_Module__state__V                             
1002e745  ti_sysbios_knl_Swi_Module_startup__E                            
00000698  ti_sysbios_knl_Swi_Object__DESC__C                              
1002fc6c  ti_sysbios_knl_Swi_Object__PARAMS__C                            
00000628  ti_sysbios_knl_Swi_Object__count__C                             
1002e769  ti_sysbios_knl_Swi_Object__delete__S                            
1002e38d  ti_sysbios_knl_Swi_Object__get__S                               
000006ec  ti_sysbios_knl_Swi_Object__table__C                             
20002a40  ti_sysbios_knl_Swi_Object__table__V                             
1002ebf1  ti_sysbios_knl_Swi_Params__init__S                              
1002d719  ti_sysbios_knl_Swi_construct                                    
00014a35  ti_sysbios_knl_Swi_construct2__E                                
1002d765  ti_sysbios_knl_Swi_create                                       
1002ecdf  ti_sysbios_knl_Swi_delete                                       
1002e8bd  ti_sysbios_knl_Swi_destruct                                     
1002ea25  ti_sysbios_knl_Swi_disable__E                                   
1002ea39  ti_sysbios_knl_Swi_enabled__E                                   
000154c5  ti_sysbios_knl_Swi_getTrigger__E                                
000007c8  ti_sysbios_knl_Swi_numPriorities__C                             
00014e25  ti_sysbios_knl_Swi_or__E                                        
1002ece3  ti_sysbios_knl_Swi_postInit__I                                  
1002d891  ti_sysbios_knl_Swi_post__E                                      
1002c9d5  ti_sysbios_knl_Swi_restoreHwi__E                                
1002db61  ti_sysbios_knl_Swi_restore__E                                   
1002d081  ti_sysbios_knl_Swi_runLoop__I                                   
1002cd91  ti_sysbios_knl_Swi_run__I                                       
1002d0e1  ti_sysbios_knl_Swi_schedule__I                                  
1002ebfd  ti_sysbios_knl_Swi_self__E                                      
0001332d  ti_sysbios_knl_Swi_setPri__E                                    
1002ec6b  ti_sysbios_knl_Swi_startup__E                                   
1002e78d  ti_sysbios_knl_Task_Handle__label__S                            
20003168  ti_sysbios_knl_Task_Instance_State_0_stack__A                   
1002c671  ti_sysbios_knl_Task_Instance_finalize__E                        
1002c251  ti_sysbios_knl_Task_Instance_init__E                            
20002d0c  ti_sysbios_knl_Task_Module_State_0_idleTask__A                  
20002a70  ti_sysbios_knl_Task_Module_State_0_readyQ__A                    
00000688  ti_sysbios_knl_Task_Module_State_inactiveQ__O                   
00000658  ti_sysbios_knl_Task_Module__id__C                               
20002ce0  ti_sysbios_knl_Task_Module__root__V                             
20002338  ti_sysbios_knl_Task_Module__state__V                            
1002d141  ti_sysbios_knl_Task_Module_startup__E                           
0000072c  ti_sysbios_knl_Task_Object__DESC__C                             
1002fba0  ti_sysbios_knl_Task_Object__PARAMS__C                           
00000928  ti_sysbios_knl_Task_Object__count__C                            
1002e3b5  ti_sysbios_knl_Task_Object__delete__S                           
1002e7b1  ti_sysbios_knl_Task_Object__get__S                              
0000079c  ti_sysbios_knl_Task_Object__table__C                            
200027ac  ti_sysbios_knl_Task_Object__table__V                            
1002ec09  ti_sysbios_knl_Task_Params__init__S                             
1002ec8f  ti_sysbios_knl_Task_SupportProxy_Module__startupDone__S         
1002eab5  ti_sysbios_knl_Task_SupportProxy_getStackAlignment__E           
1002eab5  ti_sysbios_knl_Task_SupportProxy_getStackAlignment__E           
1002dae9  ti_sysbios_knl_Task_SupportProxy_start__E                       
1002dae9  ti_sysbios_knl_Task_SupportProxy_start__E                       
1002fb77  ti_sysbios_knl_Task_SupportProxy_swap__E                        
1002fb77  ti_sysbios_knl_Task_SupportProxy_swap__E                        
000008a4  ti_sysbios_knl_Task_allBlockedFunc__C                           
1002d67d  ti_sysbios_knl_Task_allBlockedFunction__I                       
1002d7b1  ti_sysbios_knl_Task_blockI__E                                   
00014f21  ti_sysbios_knl_Task_block__E                                    
1002d5d9  ti_sysbios_knl_Task_construct                                   
1002d529  ti_sysbios_knl_Task_create                                      
00000910  ti_sysbios_knl_Task_defaultStackHeap__C                         
000008c8  ti_sysbios_knl_Task_defaultStackSize__C                         
1002ece7  ti_sysbios_knl_Task_delete                                      
1002e7d5  ti_sysbios_knl_Task_destruct                                    
1002ea4d  ti_sysbios_knl_Task_disable__E                                  
1002ec71  ti_sysbios_knl_Task_enable__E                                   
1002e7f9  ti_sysbios_knl_Task_enter__I                                    
1002db9d  ti_sysbios_knl_Task_exit__E                                     
000156e5  ti_sysbios_knl_Task_getPri__E                                   
000007d4  ti_sysbios_knl_Task_initStackFlag__C                            
000007cc  ti_sysbios_knl_Task_numConstructedTasks__C                      
1002ca59  ti_sysbios_knl_Task_postInit__I                                 
1002dc81  ti_sysbios_knl_Task_processVitalTaskFlag__I                     
1002e3dd  ti_sysbios_knl_Task_restoreHwi__E                               
1002df45  ti_sysbios_knl_Task_restore__E                                  
1002cc39  ti_sysbios_knl_Task_schedule__I                                 
1002eaf5  ti_sysbios_knl_Task_self__E                                     
0000cc05  ti_sysbios_knl_Task_setPri__E                                   
1002e989  ti_sysbios_knl_Task_sleepTimeout__I                             
1002ce01  ti_sysbios_knl_Task_sleep__E                                    
1002ccad  ti_sysbios_knl_Task_startCore__E                                
1002eceb  ti_sysbios_knl_Task_startup__E                                  
1002fb83  ti_sysbios_knl_Task_swapReturn                                  
1002dcb9  ti_sysbios_knl_Task_unblockI__E                                 
1002e9a3  ti_sysbios_knl_Task_unblock__E                                  
1002d7fd  ti_sysbios_knl_Task_yield__E                                    
1002b400  ti_sysbios_rom_cortexm_cc26xx_cc26x2v2_CC26xx_REVISION__C       
20003dac  timerAlignedQ                                                   
20003db0  timerUnalignedQ                                                 
20002af0  txAckReq                                                        
20002ac8  txCmdHandle                                                     
0000c039  txComplete                                                      
00006f91  txCsmaDelay                                                     
20002634  txPowerTable_2gfsk50kbps154g                                    
20002af3  txSeqn                                                          
20003368  uartCC26XXObjects                                               
20000100  xdcRomConstPtr                                                  
20000104  xdcRomExternFuncPtr                                             
20000108  xdcRomStatePtr                                                  
00000001  xdc_rov_runtime_Mon__checksum                                   
00000001  xdc_rov_runtime_Mon__write                                      
0000074c  xdc_runtime_Assert_E_assertFailed__C                            
1002f421  xdc_runtime_Assert_raise__I                                     
1002f659  xdc_runtime_Core_assignLabel__I                                 
1002f4c9  xdc_runtime_Core_assignParams__I                                
1002f511  xdc_runtime_Core_constructObject__I                             
1002f2f9  xdc_runtime_Core_createObject__I                                
1002f367  xdc_runtime_Core_deleteObject__I                                
1002f803  xdc_runtime_Core_destructObject__I                              
00000828  xdc_runtime_Error_E_memory__C                                   
20002b78  xdc_runtime_Error_IgnoreBlock                                   
1002f779  xdc_runtime_Error_check__E                                      
00014e6d  xdc_runtime_Error_init__E                                       
000006c8  xdc_runtime_Error_policyFxn__C                                  
1002f1f7  xdc_runtime_Error_policySpin__E                                 
000005a4  xdc_runtime_Error_policy__C                                     
1002f739  xdc_runtime_Error_raiseX__E                                     
1002f91b  xdc_runtime_Gate_enterSystem__E                                 
1002f90f  xdc_runtime_Gate_leaveSystem__E                                 
000008cc  xdc_runtime_IGateProvider_Interface__BASE__C                    
00000754  xdc_runtime_IHeap_Interface__BASE__C                            
000005a8  xdc_runtime_IModule_Interface__BASE__C                          
1002e499  xdc_runtime_Main_Module_GateProxy_Handle__label__S              
1002ec93  xdc_runtime_Main_Module_GateProxy_query__E                      
1002e529  xdc_runtime_Memory_HeapProxy_Handle__label__S                   
1002f8f1  xdc_runtime_Memory_HeapProxy_alloc__E                           
1002f8fb  xdc_runtime_Memory_HeapProxy_free__E                            
1002f905  xdc_runtime_Memory_HeapProxy_getStats__E                        
000006f0  xdc_runtime_Memory_Module__id__C                                
2000237c  xdc_runtime_Memory_Module__state__V                             
1002f289  xdc_runtime_Memory_alloc__E                                     
1002f8d9  xdc_runtime_Memory_calloc__E                                    
00000950  xdc_runtime_Memory_defaultHeapInstance__C                       
1002f81d  xdc_runtime_Memory_free__E                                      
1002f8a9  xdc_runtime_Memory_getMaxDefaultTypeAlign__E                    
1002f831  xdc_runtime_Memory_getStats__E                                  
1002f795  xdc_runtime_Memory_valloc__E                                    
200022f0  xdc_runtime_Registry_Module__state__V                           
1002f759  xdc_runtime_Registry_findById__E                                
200022e8  xdc_runtime_Startup_Module__state__V                            
00000001  xdc_runtime_Startup__EXECFXN__C                                 
00000001  xdc_runtime_Startup__RESETFXN__C                                
000005f8  xdc_runtime_Startup_execImpl__C                                 
1002f475  xdc_runtime_Startup_exec__E                                     
00014e85  xdc_runtime_Startup_exec__I                                     
00001c9c  xdc_runtime_Startup_firstFxns__A                                
000006d4  xdc_runtime_Startup_firstFxns__C                                
000109f9  xdc_runtime_Startup_getState__I                                 
000005ac  xdc_runtime_Startup_lastFxns__C                                 
000007d0  xdc_runtime_Startup_maxPasses__C                                
000156e9  xdc_runtime_Startup_reset__I                                    
1002f8e5  xdc_runtime_Startup_rtsDone__E                                  
00001b68  xdc_runtime_Startup_sfxnRts__A                                  
00000848  xdc_runtime_Startup_sfxnRts__C                                  
00001988  xdc_runtime_Startup_sfxnTab__A                                  
00000958  xdc_runtime_Startup_sfxnTab__C                                  
000008d4  xdc_runtime_Startup_startModsFxn__C                             
1002f055  xdc_runtime_Startup_startMods__I                                
1002f91f  xdc_runtime_SysCallback_Module__startupDone__S                  
0000090c  xdc_runtime_SysCallback_abortFxn__C                             
1002f845  xdc_runtime_SysCallback_abort__E                                
0000f693  xdc_runtime_SysCallback_defaultAbort                            
0000f703  xdc_runtime_SysCallback_defaultExit                             
00010233  xdc_runtime_SysCallback_defaultFlush                            
00010773  xdc_runtime_SysCallback_defaultPutch                            
000156ed  xdc_runtime_SysCallback_defaultReady                            
00000758  xdc_runtime_SysCallback_exitFxn__C                              
1002f859  xdc_runtime_SysCallback_exit__E                                 
000006f4  xdc_runtime_SysCallback_flushFxn__C                             
1002f86d  xdc_runtime_SysCallback_flush__E                                
0000088c  xdc_runtime_SysCallback_putchFxn__C                             
1002f881  xdc_runtime_SysCallback_putch__E                                
000008c0  xdc_runtime_SysCallback_readyFxn__C                             
1002f895  xdc_runtime_SysCallback_ready__E                                
1002e499  xdc_runtime_System_Module_GateProxy_Handle__label__S            
1002f923  xdc_runtime_System_Module_GateProxy_enter__E                    
1002f927  xdc_runtime_System_Module_GateProxy_leave__E                    
1002ec93  xdc_runtime_System_Module_GateProxy_query__E                    
1002ec93  xdc_runtime_System_Module_GateProxy_query__E                    
20002380  xdc_runtime_System_Module__state__V                             
1002f915  xdc_runtime_System_Module_startup__E                            
1002f91f  xdc_runtime_System_SupportProxy_Module__startupDone__S          
1002f845  xdc_runtime_System_SupportProxy_abort__E                        
1002f859  xdc_runtime_System_SupportProxy_exit__E                         
1002f86d  xdc_runtime_System_SupportProxy_flush__E                        
1002f881  xdc_runtime_System_SupportProxy_putch__E                        
1002f895  xdc_runtime_System_SupportProxy_ready__E                        
000007d8  xdc_runtime_System_abortFxn__C                                  
1002f81b  xdc_runtime_System_abortSpin__E                                 
1002f711  xdc_runtime_System_abort__E                                     
1002f559  xdc_runtime_System_atexit__E                                    
1002ecf1  xdc_runtime_System_doPrint__I                                   
0000083c  xdc_runtime_System_exitFxn__C                                   
1002f92f  xdc_runtime_System_exitSpin__E                                  
1002f7b1  xdc_runtime_System_exit__E                                      
000008dc  xdc_runtime_System_extendFxn__C                                 
1002f86d  xdc_runtime_System_flush__E                                     
0000f695  xdc_runtime_System_formatNum__I                                 
00000790  xdc_runtime_System_maxAtexitHandlers__C                         
00009fb5  xdc_runtime_System_printfExtend__I                              
1002f7e9  xdc_runtime_System_printf__E                                    
1002f92b  xdc_runtime_System_printf_va__F                                 
1002f5e5  xdc_runtime_System_processAtExit__E                             
1002f625  xdc_runtime_System_putchar__I                                   
00014af1  xdc_runtime_System_snprintf__E                                  
000156f1  xdc_runtime_System_snprintf_va__F                               
1002f6b9  xdc_runtime_System_vprintf__E                                   
1002f8b9  xdc_runtime_System_vsnprintf__E                                 
000006b8  xdc_runtime_Text_charCnt__C                                     
00001b8f  xdc_runtime_Text_charTab__A                                     
000006dc  xdc_runtime_Text_charTab__C                                     
1002f6e5  xdc_runtime_Text_cordText__E                                    
00000634  xdc_runtime_Text_isLoaded__C                                    
00000900  xdc_runtime_Text_nameEmpty__C                                   
000008b0  xdc_runtime_Text_nameStatic__C                                  
0000094c  xdc_runtime_Text_nameUnknown__C                                 
1002f689  xdc_runtime_Text_printVisFxn__I                                 
1002f3c5  xdc_runtime_Text_putLab__E                                      
1002f1f9  xdc_runtime_Text_putMod__E                                      
1002f15d  xdc_runtime_Text_putSite__E                                     
00000798  xdc_runtime_Text_registryModsLastId__C                          
1002f7cd  xdc_runtime_Text_ropeText__E                                    
000008c4  xdc_runtime_Text_unnamedModsLastId__C                           
00000908  xdc_runtime_Text_visitRopeFxn__C                                
000155d1  xdc_runtime_Text_visitRope__I                                   
1002f5a1  xdc_runtime_Text_xprintf__I                                     
1002f8c9  xdc_runtime_Timestamp_SupportProxy_get32__E                     
1002f8c9  xdc_runtime_Timestamp_SupportProxy_get32__E                     
1002dffd  xdc_runtime_Timestamp_SupportProxy_get64__E                     
1002dffd  xdc_runtime_Timestamp_SupportProxy_get64__E                     
1002eb3d  xdc_runtime_Timestamp_SupportProxy_getFreq__E                   
1002eb3d  xdc_runtime_Timestamp_SupportProxy_getFreq__E                   
1002f8c9  xdc_runtime_Timestamp_get32__E                                  
1002f8c9  xdc_runtime_Timestamp_get32__E                                  
1002dffd  xdc_runtime_Timestamp_get64__E                                  
1002dffd  xdc_runtime_Timestamp_get64__E                                  
1002eb3d  xdc_runtime_Timestamp_getFreq__E                                
1002eb3d  xdc_runtime_Timestamp_getFreq__E                                


GLOBAL SYMBOLS: SORTED BY Symbol Address 

address   name                                                            
-------   ----                                                            
00000000  __ASM__                                                         
00000000  ti_sysbios_family_arm_m3_Hwi_resetVectors                       
00000001  xdc_rov_runtime_Mon__checksum                                   
00000001  xdc_rov_runtime_Mon__write                                      
00000001  xdc_runtime_Startup__EXECFXN__C                                 
00000001  xdc_runtime_Startup__RESETFXN__C                                
0000003c  HMAC_ROM_Flash_JT                                               
00000082  __ISA__                                                         
00000095  __PLAT__                                                        
000000bc  __TARG__                                                        
000000e2  __TRDR__                                                        
00000560  __STACK_SIZE                                                    
000005a4  ROM_constStruct                                                 
000005a4  xdc_runtime_Error_policy__C                                     
000005a8  xdc_runtime_IModule_Interface__BASE__C                          
000005ac  xdc_runtime_Startup_lastFxns__C                                 
000005b4  ti_sysbios_knl_Event_Object__DESC__C                            
000005d4  ti_sysbios_family_arm_m3_Hwi_excHookFuncs__C                    
000005d8  ti_sysbios_gates_GateMutex_Object__DESC__C                      
000005f8  xdc_runtime_Startup_execImpl__C                                 
000005fc  ti_sysbios_gates_GateMutex_Instance_State_sem__O                
00000600  ti_sysbios_heaps_HeapTrack_Module__FXNS__C                      
00000628  ti_sysbios_knl_Swi_Object__count__C                             
0000062c  ti_sysbios_knl_Idle_funcList__C                                 
00000634  xdc_runtime_Text_isLoaded__C                                    
00000638  ti_sysbios_knl_Clock_Object__DESC__C                            
00000658  ti_sysbios_knl_Task_Module__id__C                               
0000065c  ti_sysbios_knl_Mailbox_Instance_State_dataQue__O                
00000660  ti_sysbios_knl_Semaphore_eventSync__C                           
00000664  ti_sysbios_gates_GateMutex_Module__FXNS__C                      
00000688  ti_sysbios_knl_Task_Module_State_inactiveQ__O                   
0000068c  ti_sysbios_family_arm_m3_Hwi_Module__id__C                      
0000068e  ti_sysbios_family_arm_cc26xx_Timer_Module__id__C                
00000690  ti_sysbios_knl_Mailbox_Object__table__C                         
00000694  ti_sysbios_family_arm_m3_Hwi_Object__table__C                   
00000698  ti_sysbios_knl_Swi_Object__DESC__C                              
000006b8  xdc_runtime_Text_charCnt__C                                     
000006bc  ti_sysbios_heaps_HeapTrack_A_bufOverflow__C                     
000006c0  ti_sysbios_heaps_HeapMem_Object__table__C                       
000006c4  ti_sysbios_family_arm_cc26xx_Timer_funcHookCH1__C               
000006c8  xdc_runtime_Error_policyFxn__C                                  
000006cc  ti_sysbios_family_arm_m3_Hwi_E_reserved__C                      
000006d0  ti_sysbios_heaps_HeapTrack_A_notEmpty__C                        
000006d4  xdc_runtime_Startup_firstFxns__C                                
000006dc  xdc_runtime_Text_charTab__C                                     
000006e0  ti_sysbios_family_arm_m3_TaskSupport_stackAlignment__C          
000006e4  ti_sysbios_family_arm_m3_Hwi_NUM_INTERRUPTS__C                  
000006e8  ti_sysbios_knl_Clock_triggerClock__C                            
000006ec  ti_sysbios_knl_Swi_Object__table__C                             
000006f0  xdc_runtime_Memory_Module__id__C                                
000006f2  ti_sysbios_knl_Swi_Module__id__C                                
000006f4  xdc_runtime_SysCallback_flushFxn__C                             
000006f8  ti_sysbios_heaps_HeapMem_Module__gateObj__C                     
000006fc  ti_sysbios_family_arm_cc26xx_Timer_startupNeeded__C             
00000700  ti_sysbios_family_arm_m3_Hwi_E_noIsr__C                         
00000704  ti_sysbios_knl_Queue_Object__DESC__C                            
00000724  ti_sysbios_family_arm_cc26xx_Timer_funcHookCH2__C               
00000728  ti_sysbios_family_arm_m3_Hwi_E_NMI__C                           
0000072c  ti_sysbios_knl_Task_Object__DESC__C                             
0000074c  xdc_runtime_Assert_E_assertFailed__C                            
00000750  ti_sysbios_gates_GateHwi_Module__id__C                          
00000754  xdc_runtime_IHeap_Interface__BASE__C                            
00000758  xdc_runtime_SysCallback_exitFxn__C                              
0000075c  ti_sysbios_heaps_HeapMem_Module__id__C                          
00000760  ti_sysbios_family_arm_m3_Hwi_excHandlerFunc__C                  
00000764  ti_sysbios_heaps_HeapMem_Module__FXNS__C                        
0000078c  ti_sysbios_family_arm_m3_Hwi_E_busFault__C                      
00000790  xdc_runtime_System_maxAtexitHandlers__C                         
00000794  ti_sysbios_knl_Queue_Object__count__C                           
00000798  xdc_runtime_Text_registryModsLastId__C                          
0000079c  ti_sysbios_knl_Task_Object__table__C                            
000007a0  ti_sysbios_knl_Mailbox_Object__DESC__C                          
000007c0  ti_sysbios_family_arm_m3_Hwi_nullIsrFunc__C                     
000007c4  ti_sysbios_knl_Clock_tickMode__C                                
000007c6  ti_sysbios_gates_GateMutex_Module__id__C                        
000007c8  ti_sysbios_knl_Swi_numPriorities__C                             
000007cc  ti_sysbios_knl_Task_numConstructedTasks__C                      
000007d0  xdc_runtime_Startup_maxPasses__C                                
000007d4  ti_sysbios_knl_Task_initStackFlag__C                            
000007d8  xdc_runtime_System_abortFxn__C                                  
000007dc  ti_sysbios_knl_Mailbox_Instance_State_dataSem__O                
000007e0  ti_sysbios_gates_GateHwi_Module__FXNS__C                        
00000804  ti_sysbios_hal_Hwi_Object__DESC__C                              
00000824  ti_sysbios_family_arm_m3_Hwi_priGroup__C                        
00000828  xdc_runtime_Error_E_memory__C                                   
0000082c  ti_sysbios_family_arm_m3_Hwi_E_alreadyDefined__C                
00000830  ti_sysbios_knl_Mailbox_Instance_State_freeSem__O                
00000834  ti_sysbios_knl_Queue_Object__table__C                           
00000838  ti_sysbios_knl_Semaphore_eventPost__C                           
0000083c  xdc_runtime_System_exitFxn__C                                   
00000840  ti_sysbios_heaps_HeapTrack_A_doubleFree__C                      
00000844  ti_sysbios_heaps_HeapMem_reqAlign__C                            
00000848  xdc_runtime_Startup_sfxnRts__C                                  
0000084c  ti_sysbios_knl_Semaphore_Object__DESC__C                        
0000086c  ti_sysbios_gates_GateHwi_Object__DESC__C                        
0000088c  xdc_runtime_SysCallback_putchFxn__C                             
00000890  ti_sysbios_heaps_HeapMem_Object__count__C                       
00000894  ti_sysbios_family_arm_m3_Hwi_numSparseInterrupts__C             
00000898  ti_sysbios_knl_Mailbox_maxTypeAlign__C                          
0000089c  ti_sysbios_family_arm_cc26xx_TimestampProvider_useClockTimer__C 
000008a0  ti_sysbios_knl_Event_Instance_State_pendQ__O                    
000008a4  ti_sysbios_knl_Task_allBlockedFunc__C                           
000008a8  ti_sysbios_family_arm_m3_Hwi_E_hardFault__C                     
000008ac  ti_sysbios_knl_Mailbox_Object__count__C                         
000008b0  xdc_runtime_Text_nameStatic__C                                  
000008b4  ti_sysbios_family_arm_m3_Hwi_E_debugMon__C                      
000008b8  ti_sysbios_family_arm_m3_Hwi_E_svCall__C                        
000008bc  ti_sysbios_knl_Clock_Module_State_clockQ__O                     
000008c0  xdc_runtime_SysCallback_readyFxn__C                             
000008c4  xdc_runtime_Text_unnamedModsLastId__C                           
000008c8  ti_sysbios_knl_Task_defaultStackSize__C                         
000008cc  xdc_runtime_IGateProvider_Interface__BASE__C                    
000008d0  ti_sysbios_family_arm_m3_Hwi_E_hwiLimitExceeded__C              
000008d4  xdc_runtime_Startup_startModsFxn__C                             
000008d8  ti_sysbios_knl_Semaphore_Instance_State_pendQ__O                
000008dc  xdc_runtime_System_extendFxn__C                                 
000008e0  ti_sysbios_family_arm_m3_Hwi_Object__DESC__C                    
00000900  xdc_runtime_Text_nameEmpty__C                                   
00000904  ti_sysbios_family_arm_m3_Hwi_Object__count__C                   
00000908  xdc_runtime_Text_visitRopeFxn__C                                
0000090c  xdc_runtime_SysCallback_abortFxn__C                             
00000910  ti_sysbios_knl_Task_defaultStackHeap__C                         
00000914  ti_sysbios_family_arm_m3_Hwi_E_usageFault__C                    
00000918  ti_sysbios_family_arm_m3_Hwi_ccr__C                             
0000091c  ti_sysbios_heaps_HeapTrack_Module__id__C                        
00000920  ti_sysbios_heaps_HeapMem_E_memory__C                            
00000924  ti_sysbios_family_arm_m3_Hwi_E_memFault__C                      
00000928  ti_sysbios_knl_Task_Object__count__C                            
0000092c  ti_sysbios_heaps_HeapMem_Object__DESC__C                        
0000094c  xdc_runtime_Text_nameUnknown__C                                 
00000950  xdc_runtime_Memory_defaultHeapInstance__C                       
00000954  ti_sysbios_knl_Mailbox_Instance_State_freeQue__O                
00000958  xdc_runtime_Startup_sfxnTab__C                                  
0000095c  FH_ROM_Flash_JT                                                 
00000e90  _ctypes_                                                        
00001091  macPibTbl                                                       
0000118b  aesccmCC26XXHWAttrs                                             
0000118c  LMAC_ROM_Flash_JT                                               
00001258  RF_cmdFs_2gfsk50kbps154g                                        
00001270  RF_cmdPropCs_2gfsk50kbps154g                                    
0000128c  RF_cmdPropTxAdv_2gfsk50kbps154g                                 
000012ac  RF_cmdPropRadioDivSetup_2gfsk50kbps154g                         
000012d4  RF_cmdPropRxAdv_2gfsk50kbps154g                                 
00001304  macPibDefaults                                                  
00001391  Cllc_keySource                                                  
00001404  macAssociatingSt                                                
00001472  macIdleSt                                                       
000014e0  macPollingSt                                                    
0000154e  macScanningSt                                                   
000015bc  macStartingSt                                                   
0000162c  ICALL_OSAL_ROM_Flash_JT                                         
00001698  macSecurityPibTbl                                               
000016f0  resourceDB                                                      
00001744  macMRFSKStdPhyTable                                             
00001828  ROM_externFuncPtrs                                              
00001870  macTimerRolloverValue                                           
000018b0  macCmdIncludeFHIe                                               
000018e8  NVSCC26XX_fxnTable                                              
00001910  UARTCC26XX_fxnTable                                             
00001938  ti_sysbios_heaps_HeapCallback_Module__FXNS__C                   
00001988  xdc_runtime_Startup_sfxnTab__A                                  
000019b0  UART_defaultParams                                              
000019d4  ti_sysbios_gates_GateMutexPri_Module__FXNS__C                   
00001a38  ti_sysbios_gates_GateMutexPri_Object__DESC__C                   
00001a58  ti_sysbios_heaps_HeapCallback_Object__DESC__C                   
00001a94  BoardGpioInitTable                                              
00001ab0  ti_sysbios_heaps_HeapCallback_Object__PARAMS__C                 
00001acc  PWM_defaultParams                                               
00001afc  macSendMsgBufSize                                               
00001b14  ti_sysbios_gates_GateMutexPri_Object__PARAMS__C                 
00001b2c  GPIOCC26XX_config                                               
00001b40  PowerCC26X2_config                                              
00001b68  xdc_runtime_Startup_sfxnRts__A                                  
00001b7c  msacbackSizeTable                                               
00001b8f  xdc_runtime_Text_charTab__A                                     
00001b90  AESCCM_defaultParams                                            
00001ba0  Button_config                                                   
00001bb0  Button_defaultParams                                            
00001bc0  LED_config                                                      
00001bd0  TRNG_defaultParams                                              
00001bf0  macIEEEPhyTable                                                 
00001c00  outPinTypes                                                     
00001c10  macCmdBufSize                                                   
00001c1e  macTxFrameFailed                                                
00001c2c  macTxFrameSuccess                                               
00001c48  macCbackEventTbl                                                
00001c54  macSendMsgDataSize                                              
00001c60  NVS_config                                                      
00001c6c  RFCC26XX_hwAttrs                                                
00001c78  UART_config                                                     
00001c84  inPinTypes                                                      
00001c90  outPinStrengths                                                 
00001c9c  xdc_runtime_Startup_firstFxns__A                                
00001ca8  macCmdLen                                                       
00001ccc  macAuthTagLen                                                   
00001cd4  AESCCM_config                                                   
00001cdc  LED_defaultParams                                               
00001ce4  PINCC26XX_hwAttrs                                               
00001cec  RFCC26XX_schedulerPolicy                                        
00001d04  ti_sysbios_family_arm_m3_Hwi_excHookFuncs__A                    
00001d24  Display_count                                                   
00001d25  AESCCM_count                                                    
00001d26  NVS_count                                                       
00001d27  UART_count                                                      
00001d28  Button_count                                                    
00001d29  LED_count                                                       
00001d34  macKeySourceLen                                                 
00001d3c  NVS_defaultParams                                               
00001d40  ti_sysbios_gates_GateMutexPri_Instance_State_pendQ__O           
00001d44  ti_sysbios_heaps_HeapCallback_Object__count__C                  
00001d48  ti_sysbios_heaps_HeapCallback_allocInstFxn__C                   
00001d4c  ti_sysbios_heaps_HeapCallback_createInstFxn__C                  
00001d50  ti_sysbios_heaps_HeapCallback_deleteInstFxn__C                  
00001d54  ti_sysbios_heaps_HeapCallback_freeInstFxn__C                    
00001d58  ti_sysbios_heaps_HeapCallback_getStatsInstFxn__C                
00001d5c  ti_sysbios_heaps_HeapCallback_initInstFxn__C                    
00001d60  ti_sysbios_heaps_HeapCallback_isBlockingInstFxn__C              
00001d64  ti_sysbios_knl_Clock_tickPeriod__C                              
00001d68  ti_sysbios_knl_Idle_funcList__A                                 
00001d6c  macRfDriverTable                                                
00001dd8  macCryptoDriverTable                                            
00001e39  Csf_init                                                        
0000222d  rfSelect                                                        
00002605  macRxCb                                                         
00002d3b  NOROM_RFCCpePatchReset                                          
000033dd  macRadioCsmaTxCb                                                
00003ed9  macTxFrame                                                      
000043d9  macPwrVote                                                      
00004629  Csf_processEvents                                               
00004ab1  CUI_init                                                        
00004f0d  macRadioInitSubG                                                
0000512d  RF_scheduleCmd                                                  
00005331  RF_open                                                         
00005531  macWrapperAddKeyInitFCtr                                        
00005711  macSendReceiveCmdIeee                                           
000058dd  PIN_init                                                        
00005e19  macRxBeaconCritical                                             
00005fc5  Power_sleep                                                     
0000616d  macWrapperDeleteKeyAndAssociatedDevices                         
00006311  macIncomingFrameSecurityMaterialRetrieval                       
000064ad  macWrapperDeleteDevice                                          
00006965  Power_init                                                      
00006af1  macIncomingFrameSecurity                                        
00006f91  txCsmaDelay                                                     
00007599  macRadioTxPrepCsmaUnslotted                                     
00007705  UARTCC26XX_open                                                 
00007869  macWrapperDeleteAllDevices                                      
00007b25  NOROM_SysCtrlStandby                                            
00007c79  UARTCC26XX_hwiIntFxn                                            
00007dcd  Csf_deviceUpdate                                                
00008065  macRadioLbtTxCb                                                 
000081ad  macSendReceiveCmdSubG                                           
000086b5  CUI_statusLinePrintf                                            
0000892d  UARTCC26XX_read                                                 
00008a67  _nop                                                            
00008a69  NVSCC26XX_write                                                 
0000906d  macRadioInitIeee                                                
0000919d  strtol                                                          
000093e9  macLowLevelBufferInit                                           
00009501  macSetupRATChanCompare                                          
00009619  macEdScanISR                                                    
0000972d  macScanNextChan                                                 
00009955  CUI_menuActionHelp                                              
00009a65  GPIO_setConfig                                                  
00009b75  LED_open                                                        
00009c85  RF_close                                                        
00009fb5  xdc_runtime_System_printfExtend__I                              
0000a2c1  CUI_statusLineResourceRequest                                   
0000a4b9  macOutgoingFrameKeyDescRetrieval                                
0000a6ad  macTxChannelBusyCallback                                        
0000a895  macScanRxCoordRealign                                           
0000aa71  macRadioPowerUp                                                 
0000ab5d  Button_open                                                     
0000ac45  macSetupReceiveCmd                                              
0000ad2d  macOutgoingFrameSecurity                                        
0000aef5  UARTCC26XX_write                                                
0000afd5  Collector_sendConfigRequest                                     
0000b0b1  macSendFsCmd                                                    
0000b265  macCcmStarTransform                                             
0000b33d  RF_pendCmd                                                      
0000b4e3  macApiPwrOnReq                                                  
0000b5b5  RF_control                                                      
0000b681  macSymbolTimerTriggerCallback                                   
0000b815  Power_releaseDependency                                         
0000b8dd  Button_init                                                     
0000b8dd  GPIO_init                                                       
0000b9a1  Power_setDependency                                             
0000ba65  macApiStartReq                                                  
0000bca9  macAutoPoll                                                     
0000be1d  MAC_PwrOffReq                                                   
0000bed1  PowerCC26XX_standbyPolicy                                       
0000bf85  TRNG_generateEntropy                                            
0000c039  txComplete                                                      
0000c0ed  MAC_SrcMatchAddEntry                                            
0000c24d  PIN_open                                                        
0000c2f9  macApiBeaconStartReq                                            
0000c3a5  macTaskInit                                                     
0000c4fd  NOROM_SetupTrimDevice                                           
0000c4fd  ti_sysbios_family_arm_cc26xx_Boot_trimDevice                    
0000c64d  macSymbolTimerInit                                              
0000c799  RF_requestAccess                                                
0000c83d  macCcmStarInverseTransform                                      
0000c8e1  macRadioUpdateTxPower                                           
0000c985  Csf_getDevice                                                   
0000ca25  __TI_auto_init                                                  
0000cac5  macBlacklistChecking                                            
0000cb65  macRadioTxPrepLbt                                               
0000cc05  ti_sysbios_knl_Task_setPri__E                                   
0000cca5  Cllc_init                                                       
0000cf15  macGetRFCmdDuration                                             
0000cfb1  macRadioStartScan                                               
0000d04d  macRadioTxEnhAckCb                                              
0000d0e9  macTimerRealign                                                 
0000d185  __aeabi_memcpy                                                  
0000d185  __aeabi_memcpy4                                                 
0000d185  __aeabi_memcpy8                                                 
0000d185  memcpy                                                          
0000d2b9  __aeabi_uldivmod                                                
0000d34f  macRadioSetRE                                                   
0000d351  Csf_updateFrameCounter                                          
0000d3e5  RF_getInfo                                                      
0000d50d  macIncomingSecurityLevelChecking                                
0000d5a1  macRadioUpdateChannel                                           
0000d635  macRadioUpdateChannelRx                                         
0000d6c9  macRatCb_A                                                      
0000d7f1  UARTCC26XX_writeCancel                                          
0000d883  __aeabi_idiv0                                                   
0000d883  __aeabi_ldiv0                                                   
0000d885  Board_initHook                                                  
0000d885  CC1352R1_LAUNCHXL_shutDownExtFlash                              
0000d9a5  macCcmDecrypt                                                   
0000da35  OsalPort_malloc                                                 
0000dac1  OsalPort_setTimer                                               
0000dbd9  macCcmEncrypt                                                   
0000dc65  ti_sysbios_gates_GateMutexPri_enter__E                          
0000dcf1  MAC_SrcMatchEnable                                              
0000dd79  NOROM_OSCHF_AttemptToSwitchToXosc                               
0000de89  RF_getTxPower                                                   
0000e021  macKeyDescriptorLookup                                          
0000e0a9  macMcuBitReverse                                                
0000e23d  Cllc_removeDevice                                               
0000e3c9  UARTCC26XX_close                                                
0000e44d  macRxOffRequest                                                 
0000e4d1  macTimerUpdateSymbolTimer                                       
0000e555  ApiMac_init                                                     
0000e5d5  NVSCC26XX_open                                                  
0000e6d5  macMcuOverflowSetPeriod                                         
0000e755  macRadioWakeupCb                                                
0000e855  ti_sysbios_family_arm_cc26xx_Timer_start__E                     
0000e955  Csf_getDeviceItem                                               
0000eac9  macMcuOverflowSetCompare                                        
0000eb45  macRxOn                                                         
0000ebc1  osalHeapInitFxn                                                 
0000ec3d  __aeabi_memclr                                                  
0000ec3d  __aeabi_memclr4                                                 
0000ec3d  __aeabi_memclr8                                                 
0000ec3f  __aeabi_memset                                                  
0000ec3f  __aeabi_memset4                                                 
0000ec3f  __aeabi_memset8                                                 
0000ec45  memset                                                          
0000ecb7  ti_sysbios_BIOS_nullFunc__I                                     
0000ecb9  Cllc_securityInit                                               
0000ee99  Csf_removeDevice                                                
0000ef81  PowerCC26X2_auxISR                                              
0000eff5  RF_yield                                                        
0000f069  TRNG_construct                                                  
0000f151  ti_sysbios_gates_GateMutexPri_leave__E                          
0000f237  ti_sysbios_heaps_HeapCallback_defaultDelete                     
0000f2a9  NOROM_RFCAnaDivTxOverride                                       
0000f389  PIN_add                                                         
0000f469  Random_seedAutomatic                                            
0000f625  __aeabi_ldivmod                                                 
0000f693  xdc_runtime_SysCallback_defaultAbort                            
0000f695  xdc_runtime_System_formatNum__I                                 
0000f703  xdc_runtime_SysCallback_defaultExit                             
0000f705  Cllc_restoreNetwork                                             
0000f771  RF_ratDisableChannel                                            
0000f7dd  macTrackPeriodCallback                                          
0000f849  macTxDoneCallback                                               
0000f91d  OsalPort_registerTask                                           
0000f985  RF_getCurrentTime                                               
0000f9ed  __TI_decompress_lzss                                            
0000fa55  macRadioTxBackoffBoundary                                       
0000fabd  macRxHaltCleanup                                                
0000fb25  macSetupFsCmd                                                   
0000fc59  Button_gpioCallbackFxn                                          
0000fcbd  NOROM_OSCHF_SwitchToRcOscTurnOffXosc                            
0000fd21  NOROM_OSC_HPOSCRtcCompensate                                    
0000fde9  OsalPort_clearEvent                                             
0000fe4d  OsalPort_pwrmgrTaskState                                        
0000ff15  UARTCC26XX_control                                              
000100a5  macSymbolTimerRolloverCallback                                  
00010109  macTimerAddTimer                                                
0001016d  main                                                            
000101d1  UARTCC26XX_swiIntFxn                                            
00010233  xdc_runtime_SysCallback_defaultFlush                            
00010295  CryptoResourceCC26XX_constructRTOSObjects                       
000102f5  GPIO_write                                                      
00010475  macGetRadioTxPowerReg                                           
000104d5  macTimerCancel                                                  
00010535  macTimerGetNextTimer                                            
00010715  convertTxOptions                                                
00010773  xdc_runtime_SysCallback_defaultPutch                            
00010775  OsalPort_msgReceive                                             
000107d1  OsalPort_setEvent                                               
0001082d  PIN_remove                                                      
00010941  macSetDefaultsByPatch                                           
000109f9  xdc_runtime_Startup_getState__I                                 
00010b05  PowerCC26X2_initiateCalibration                                 
00010b5d  RF_TxPowerTable_findValue                                       
00010c65  TRNG_init                                                       
00010cbd  ResetISR                                                        
00010cbd  _c_int00                                                        
00010d15  macRadioSetChannelRx                                            
00010d6d  RF_defaultSubmitPolicy                                          
00010dc5  AESCCM_construct                                                
00010e19  Cllc_addSecDevice                                               
00010e6d  NOROM_ChipInfo_GetChipType                                      
00010f15  NVSCC26XX_init                                                  
00010f69  StructRingBuf_put                                               
00010fbd  macIncomingKeyUsagePolicyChecking                               
00011011  macRadioSetChannel                                              
00011065  macStopCmd                                                      
000110b9  macTxAckReceivedCallback                                        
00011209  ClockP_construct                                                
00011259  ClockP_create                                                   
000112a9  Csf_deviceDisassocUpdate                                        
000112f9  GPIO_enableInt                                                  
00011349  LED_startBlinking                                               
00011489  macCanSleep                                                     
000114d9  macRadioSetPanCoordinator                                       
00011529  macRxDisable                                                    
00011579  macTimerStart                                                   
00011665  OsalPort_msgSend                                                
000116b1  StructRingBuf_get                                               
000116fd  UARTCC26XX_readCancel                                           
00011749  atoi                                                            
00011795  copy_in                                                         
000117e1  macRadioTxHandleAck                                             
0001182d  osalHeapGetStatsFxn                                             
0001195d  CC1352R1_LAUNCHXL_wakeUpExtFlash                                
000119ed  Csf_getNumDeviceListEntries                                     
00011a35  NOROM_RFCSynthPowerDown                                         
00011ac5  NVS_open                                                        
00011b0d  PIN_setOutputEnable                                             
00011b55  PowerCC26X2_RCOSC_clockFunc                                     
00011b9d  PowerCC26XX_switchXOSC_HF                                       
00011be5  Timer_construct                                                 
00011d95  macRadioNeedAdjustPower                                         
00011ddd  macRadioStopScan                                                
00011e25  macTimerUpdActive                                               
00011eb5  RingBuf_put                                                     
00011efb  macDeviceDescriptorLookup                                       
00011f41  Cllc_sendDisassociationRequest                                  
00011f85  GPIO_disableInt                                                 
00011fc9  MAC_PwrNextTimeout                                              
0001200d  NOROM_ChipInfo_GetHwRevision                                    
00012051  NVSCC26XX_read                                                  
000120d9  PWM_init                                                        
0001211d  UART_init                                                       
00012161  macRatCb_B                                                      
000121a5  macTxTimestampCallback                                          
00012271  Csf_getNetworkInformation                                       
000122f1  PWM_open                                                        
00012331  PowerCC26XX_isStableXOSC_HF                                     
00012371  Random_getNumber                                                
000123b1  RingBuf_get                                                     
00012431  UART_open                                                       
000124b1  macLowLevelYield                                                
000124f1  macRxNokIsr                                                     
00012571  macSymbolTimerSetTrigger                                        
000125b1  macTxUpdateIE                                                   
000125f1  __aeabi_uidiv                                                   
000125f1  __aeabi_uidivmod                                                
00012631  ti_sysbios_family_arm_cc26xx_Timer_setThreshold__I              
00012671  ti_sysbios_heaps_HeapCallback_Module_startup__E                 
000126b1  HwiP_construct                                                  
000126ef  LED_setBrightnessLevel                                          
0001272d  OsalPort_msgEnqueueMax                                          
0001276d  CUI_ledOn                                                       
000127a9  LED_setOff                                                      
000127e5  MAC_PwrOnReq                                                    
00012821  PIN_setInterrupt                                                
0001285d  PIN_setOutputValue                                              
00012911  SwiP_construct                                                  
000129c5  macTimerRecalcUnaligned                                         
00012a01  macTxDecrypt                                                    
00012a3d  ti_sysbios_family_arm_m3_Hwi_construct2__E                      
00012a79  CUI_btnResourceRequest                                          
00012ab1  CUI_ledBlink                                                    
00012b21  Cllc_setJoinPermit                                              
00012b59  Collector_sendDeviceTypeRequest                                 
00012b91  Collector_sendToggleLedRequest                                  
00012bc9  NOROM_OSC_HPOSCRelativeFrequencyOffsetGet                       
00012c39  PIN_setConfig                                                   
00012ca9  RF_powerConstraintRelease                                       
00012d19  macTimerAligned                                                 
00012d51  macTimerInit                                                    
00012d89  macTimerSetRollover                                             
00012dc1  macTxAckNotReceivedCallback                                     
00012df9  macTxFrameIsr                                                   
00012ea1  ti_sysbios_family_arm_cc26xx_Timer_getCurrentTick__E            
00012f11  ApiMac_convertCapabilityInfo                                    
00012f47  LED_setOn                                                       
00012fe9  ti_sysbios_family_arm_cc26xx_Timer_setNextTick__E               
00013021  Csf_setTrackingClock                                            
00013055  NOROM_SysCtrlIdle                                               
00013089  OsalPort_free                                                   
00013125  macCheckPhyRate                                                 
00013159  macLowLevelDiags                                                
0001318d  macRadioSetIEEEAddr                                             
000131c1  macRadioTxRequestTxAck                                          
000131f5  macRatDisableChannelB                                           
00013229  macSymbolTimerCount                                             
00013229  macTimerGetTime                                                 
0001325d  macTxRequestCsmaRtcDelay                                        
000132f9  strncpy                                                         
0001332d  ti_sysbios_knl_Swi_setPri__E                                    
00013361  OsalPort_msgExtract                                             
00013393  ti_sysbios_gates_GateMutexPri_insertPri__I                      
000133c5  Csf_setConfigClock                                              
000133f5  GPIO_hwiIntFxn                                                  
00013425  GPIO_setCallback                                                
00013485  NVSCC26XX_erase                                                 
000134b5  PINCC26XX_setMux                                                
000134e5  Power_releaseConstraint                                         
00013515  Power_setConstraint                                             
000135a5  macRxHardDisable                                                
000135d5  macRxSoftDisable                                                
00013605  macSymbolTimerBCWakeUp                                          
00013635  macSymbolTimerICallTimerCback                                   
00013665  macTimerCheckUnAlignedQ                                         
00013695  ti_sysbios_BIOS_atExitFunc__I                                   
000136c5  ti_sysbios_BIOS_startFunc__I                                    
000136f5  ti_sysbios_family_arm_cc26xx_Timer_initDevice__I                
00013725  ti_sysbios_gates_GateMutexPri_Object__create__S                 
00013755  ti_sysbios_gates_GateMutexPri_create                            
00013785  ti_sysbios_heaps_HeapCallback_Object__create__S                 
000137b5  Csf_getDeviceShort                                              
000137e3  OsalPort_msgDequeue                                             
00013811  OsalPort_msgEnqueue                                             
0001386d  malloc                                                          
0001389d  CUI_ledResourceRequest                                          
000138c9  Cllc_getFormingPanId                                            
0001394d  NVS_init                                                        
000139a5  SemaphoreP_constructBinary                                      
000139d1  SemaphoreP_createBinary                                         
00013a29  rf_patch_cpe_prop                                               
00013a81  macRadioSetPanID                                                
00013aad  macRadioSetShortAddr                                            
00013ad9  macRxSoftEnable                                                 
00013b05  macSymbolTimerSetRollover                                       
00013b31  sAddrCmp                                                        
00013b5d  ti_sysbios_gates_GateMutexPri_Handle__label__S                  
00013b89  ti_sysbios_heaps_HeapCallback_Handle__label__S                  
00013bb5  ti_sysbios_knl_Clock_getTicksUntilInterrupt__E                  
00013be1  List_insert                                                     
00013c0b  MAC_SrcMatchDeleteEntry                                         
00013c5f  ti_sysbios_knl_Clock_getTimeout__E                              
00013cb1  GPIO_read                                                       
00013cd9  NOROM_OSCHF_TurnOnXosc                                          
00013d01  NOROM_RFCOverrideSearch                                         
00013d29  Power_registerNotify                                            
00013da1  macMcuInit                                                      
00013dc9  macRxEnable                                                     
00013df1  macTxAbortIsr                                                   
00013e69  List_put                                                        
00013e8f  List_putHead                                                    
00013eb5  List_remove                                                     
00013edb  strncat                                                         
00013f25  NOROM_RFCDoorbellSendTo                                         
00013ffd  macRadioSwInit                                                  
00014045  macSymbolTimerPowerDown                                         
00014069  macTimer                                                        
0001408d  memcmp                                                          
000140f9  ti_sysbios_BIOS_registerRTSLock__I                              
0001411d  ti_sysbios_BIOS_removeRTSLock__I                                
00014141  ti_sysbios_family_arm_cc26xx_Timer_getMaxTicks__E               
00014165  ti_sysbios_gates_GateMutexPri_Object__delete__S                 
00014189  ti_sysbios_heaps_HeapCallback_Object__delete__S                 
000141ad  CryptoUtils_buffersMatch                                        
000141cf  LED_stopBlinking                                                
000141f1  List_get                                                        
00014213  OsalPort_msgAllocate                                            
00014257  radioComputeED                                                  
000142d9  HwiP_setFunc                                                    
000142f9  MAC_SrcMatchAckAllPending                                       
00014339  OsalPort_memcmp                                                 
00014359  OsalPort_msgDeallocate                                          
00014399  Power_unregisterNotify                                          
00014439  RF_setTxPower                                                   
00014459  crc_update                                                      
00014479  macGetRadioState                                                
00014499  macRxOff                                                        
000144b9  macTxFrameRetransmit                                            
000145d9  ti_sysbios_BIOS_rtsLock__I                                      
000145f9  ti_sysbios_family_arm_cc26xx_Timer_dynamicStub__E               
00014619  OsalPort_buildUint32                                            
00014637  PIN_close                                                       
00014655  Power_getTransitionLatency                                      
00014673  macPibIndex                                                     
00014709  Board_init                                                      
00014725  Cllc_findDevice                                                 
00014741  Cllc_securityFill                                               
0001475d  NOROM_ChipInfo_GetChipFamily                                    
00014779  NOROM_FlashProgram                                              
00014795  NOROM_FlashSectorErase                                          
000147e9  NVSCC26XX_getAttrs                                              
00014805  NVSCC26XX_lock                                                  
0001483d  PowerCC26XX_schedulerDisable                                    
00014859  PowerCC26XX_schedulerRestore                                    
000148ad  RF_getRssi                                                      
000148c9  RF_powerConstraintSet                                           
00014901  macMcuTimerCapture                                              
0001491d  macRadioEnergyDetectStop                                        
00014939  macRadioInit                                                    
00014955  macRadioTxGo                                                    
00014971  macRxAckTxDoneCallback                                          
00014971  macTxAckIsr                                                     
0001498d  macTimerRemoveTimer                                             
000149c5  sAddrExtCmp                                                     
00014a35  ti_sysbios_knl_Swi_construct2__E                                
00014a51  LED_toggle                                                      
00014a6b  OsalPort_enterCS                                                
00014a85  PowerCC26XX_calibrate                                           
00014a9f  copyApiMacAddrToMacAddr                                         
00014ab9  macCheckPhyMode                                                 
00014ad3  macMcuLongDiv                                                   
00014aed  ApiMac_mcpsDataReq                                              
00014af1  xdc_runtime_System_snprintf__E                                  
00014b25  NOROM_ChipInfo_GetPackageType                                   
00014b55  OsalPort_msgPush                                                
00014b6d  Power_idleFunc                                                  
00014b85  RF_ScheduleCmdParams_init                                       
00014b9d  RF_cancelCmd                                                    
00014be5  UART_Params_init                                                
00014c15  _args_main                                                      
00014c8d  macCsmaTimerExpiry                                              
00014ca5  macRadioSetTxPower                                              
00014cbd  macRadioTxCancelTxAck                                           
00014cd5  macRxOnRequest                                                  
00014d05  macSymbolBCTimerPowerUp                                         
00014d1d  macSymbolTimerRestore                                           
00014d35  macSymbolTimerSetTriggerRollover                                
00014d4d  macTimerSyncRollover                                            
00014d65  macWrapper8ByteUnused                                           
00014dad  __aeabi_lmul                                                    
00014ddd  ti_sysbios_BIOS_rtsUnlock__I                                    
00014df5  ti_sysbios_gates_GateMutexPri_Instance_init__E                  
00014e0d  ti_sysbios_heaps_HeapCallback_Instance_init__E                  
00014e25  ti_sysbios_knl_Swi_or__E                                        
00014e6d  xdc_runtime_Error_init__E                                       
00014e85  xdc_runtime_Startup_exec__I                                     
00014e9d  OsalPort_leaveCS                                                
00014ec9  Util_clearEvent                                                 
00014edf  Util_setEvent                                                   
00014ef5  ti_sysbios_BIOS_exitFunc__I                                     
00014f0b  ti_sysbios_knl_Clock_setFunc__E                                 
00014f21  ti_sysbios_knl_Task_block__E                                    
00014f39  AESCCM_init                                                     
00014f4d  CUI_menuActionBack                                              
00014f61  List_clearList                                                  
00014f75  MAC_CbackCheckPending                                           
00014f89  MAC_CbackQueryRetransmit                                        
00014f9d  MAC_SrcMatchCheckAllPending                                     
00014fb1  NOROM_RFCCpeIntGetAndClear                                      
00014fc5  PWM_Params_init                                                 
00014fd9  PowerCC26X2_calibrate                                           
00014fed  RF_Params_init                                                  
00015001  RF_RatConfigCompare_init                                        
00015029  RF_flushCmd                                                     
0001503d  RF_ratCompare                                                   
00015065  StructRingBuf_construct                                         
00015079  TRNG_close                                                      
000150a1  macMcuOverflowCapture                                           
000150b5  sAddrCpy                                                        
000150c9  sAddrExtCpy                                                     
00015105  ti_sysbios_family_arm_cc26xx_Timer_getCount64__E                
00015119  ti_sysbios_heaps_HeapCallback_Object__get__S                    
0001512d  ti_sysbios_knl_Clock_doTick__I                                  
00015155  LED_Params_init                                                 
00015167  RF_getCmdOp                                                     
00015179  RingBuf_construct                                               
0001518b  SemaphoreP_pend                                                 
0001519d  AESCCM_Params_init                                              
000151ad  AESCCM_open                                                     
000151bd  Button_Params_init                                              
000151cd  Cllc_getDefaultKey                                              
000151dd  ClockP_isActive                                                 
000151ed  GPIO_getConfig                                                  
000151fd  HwiP_Params_init                                                
0001520d  Main_assertHandler                                              
0001521d  NOROM_RFCHwIntGetAndClear                                       
0001522d  PINCC26XX_getPinCount                                           
0001525d  SwiP_Params_init                                                
0001526d  Timer_isActive                                                  
0001527d  ti_sysbios_family_arm_m3_Hwi_post__E                            
0001527d  ti_sysbios_hal_Hwi_HwiProxy_post__E                             
0001527d  ti_sysbios_hal_Hwi_post__E                                      
0001528d  ti_sysbios_gates_GateMutexPri_Instance_finalize__E              
0001529d  ti_sysbios_heaps_HeapCallback_Instance_finalize__E              
000152ad  ti_sysbios_heaps_HeapCallback_alloc__E                          
000152bd  ti_sysbios_heaps_HeapCallback_free__E                           
000152cd  ti_sysbios_heaps_HeapCallback_getStats__E                       
000152dd  ti_sysbios_heaps_HeapCallback_isBlocking__E                     
0001530d  ApiMac_mlmeSetReqBool                                           
0001531b  ApiMac_mlmeSetReqUint16                                         
00015329  ApiMac_mlmeSetReqUint8                                          
00015337  CryptoKeyPlaintext_initBlankKey                                 
00015337  CryptoKeyPlaintext_initKey                                      
00015345  NVS_write                                                       
00015361  StructRingBuf_isFull                                            
0001536f  Util_buildUint32                                                
0001537d  __TI_decompress_none                                            
0001538b  ti_sysbios_family_arm_cc26xx_TimestampProvider_get32__E         
00015399  AESCCM_close                                                    
000153a5  Cllc_getChanMask                                                
000153b1  ClockP_getSystemTickPeriod                                      
000153bd  MAC_PwrMode                                                     
000153c9  NOROM_CPUcpsid                                                  
000153d5  NOROM_CPUcpsie                                                  
000153ed  NVSCC26XX_unlock                                                
00015405  OsalPort_stopTimer                                              
00015411  PIN_registerIntCb                                               
0001541d  Power_getConstraintMask                                         
00015429  Power_getDependencyCount                                        
00015435  RF_powerConstraintGet                                           
00015441  SemaphoreP_delete                                               
0001544d  _register_lock                                                  
00015459  _register_unlock                                                
00015465  __TI_zero_init                                                  
00015471  macLowLevelReset                                                
0001547d  macLowLevelResume                                               
00015489  macPwrReset                                                     
00015495  macRegisterSfdDetect                                            
000154a1  macRxSequenceNum                                                
000154ad  ti_sysbios_gates_GateMutexPri_Params__init__S                   
000154b9  ti_sysbios_knl_Queue_insert__E                                  
000154c5  ti_sysbios_knl_Swi_getTrigger__E                                
000154d1  CUI_paramsInit                                                  
000154db  ClockP_Params_init                                              
000154e5  FHIEPATCH_getPieId                                              
000154ef  NVS_erase                                                       
000154f9  NVS_getAttrs                                                    
00015503  NVS_read                                                        
0001550d  PWM_close                                                       
00015517  PWM_setDuty                                                     
00015521  PWM_start                                                       
0001552b  UART_close                                                      
00015535  UART_control                                                    
0001553f  UART_read                                                       
00015549  UART_readCancel                                                 
00015553  UART_write                                                      
0001555d  Util_copyExtAddr                                                
00015567  macMcuRandomByte                                                
00015567  macRadioRandomByte                                              
00015571  AESCCM_Operation_init                                           
00015579  ApiMac_mlmeSetReqArray                                          
00015581  LED_getState                                                    
00015589  NVSCC26XX_close                                                 
00015591  RF_RatConfigOutput_init                                         
00015599  Timer_setTimeout                                                
000155a1  UARTCC26XX_init                                                 
000155a9  Util_breakUint32                                                
000155b1  Util_buildUint16                                                
000155b9  __aeabi_errno_addr                                              
000155d1  xdc_runtime_Text_visitRope__I                                   
000155d9  AESCCM_oneStepDecrypt                                           
000155df  AESCCM_oneStepEncrypt                                           
000155e5  Main_excHandler                                                 
000155eb  NOROM_CPUdelay                                                  
000155f1  NVSCC26XX_control                                               
000155fd  RF_runDirectCmd                                                 
00015603  RF_runImmediateCmd                                              
00015609  UARTCC26XX_readPolling                                          
0001560f  UARTCC26XX_writePolling                                         
00015615  Util_hiUint16                                                   
0001561b  halAssertHandler                                                
00015621  macHalAssertHandler                                             
00015627  osalHeapAllocFxn                                                
0001562d  osalHeapFreeFxn                                                 
00015633  ti_sysbios_family_arm_m3_Hwi_setFunc__E                         
00015639  ApiMac_mlmeGetReqUint16                                         
0001563d  ApiMac_mlmeSetSecurityReqStruct                                 
00015645  ClockP_destruct                                                 
00015649  ClockP_getCpuFreq                                               
0001564d  ClockP_getTimeout                                               
00015651  ClockP_setTimeout                                               
00015655  ClockP_start                                                    
00015659  ClockP_stop                                                     
0001565d  FHIEPATCH_extractHie                                            
00015661  FHIEPATCH_extractPie                                            
00015665  FHIEPATCH_genHie                                                
00015669  FHIEPATCH_genPieContent                                         
0001566d  FHIEPATCH_getHieLen                                             
00015671  FHIEPATCH_getPieContentLen                                      
00015675  FHIEPATCH_parseHie                                              
00015679  FHIEPATCH_parsePie                                              
0001567d  HwiP_destruct                                                   
00015681  HwiP_disable                                                    
00015685  HwiP_enableInterrupt                                            
00015689  HwiP_post                                                       
0001568d  HwiP_setPriority                                                
00015691  NOROM_RFCOverrideUpdate                                         
00015695  RF_defaultConflictPolicy                                        
00015699  SemaphoreP_destruct                                             
0001569d  SemaphoreP_post                                                 
000156a1  SwiP_destruct                                                   
000156a5  SwiP_disable                                                    
000156a9  SwiP_getTrigger                                                 
000156ad  SwiP_or                                                         
000156b1  SwiP_setPriority                                                
000156b5  Timer_start                                                     
000156b9  Timer_stop                                                      
000156bd  Util_loUint16                                                   
000156c5  macPibCheckByPatch                                              
000156c9  macRadioComputeLQI                                              
000156d5  osalHeapIsBlockingFxn                                           
000156d9  ti_sysbios_gates_GateMutexPri_query__E                          
000156dd  ti_sysbios_heaps_HeapCallback_defaultCreate                     
000156e1  ti_sysbios_knl_Clock_isActive__E                                
000156e5  ti_sysbios_knl_Task_getPri__E                                   
000156e9  xdc_runtime_Startup_reset__I                                    
000156ed  xdc_runtime_SysCallback_defaultReady                            
000156f1  xdc_runtime_System_snprintf_va__F                               
00015958  __TI_static_base__                                              
00015d3c  __TI_Handler_Table_Base                                         
00015d48  __TI_Handler_Table_Limit                                        
00015d70  __TI_CINIT_Base                                                 
00015da0  __TI_CINIT_Limit                                                
00056001  macRxFrameIsr                                                   
00056815  appTaskFxn                                                      
0005715f  LED_init                                                        
000575f5  macWrapperAddDevice                                             
00057eb9  MAC_CbackEvent                                                  
00057fa8  __ccfg                                                          
1002b400  ti_sysbios_rom_cortexm_cc26xx_cc26x2v2_CC26xx_REVISION__C       
1002b405  ti_sysbios_family_arm_m3_Hwi_excDumpRegs__I                     
1002b82d  ti_sysbios_family_arm_m3_Hwi_excBusFault__I                     
1002b9a1  ti_sysbios_family_arm_m3_Hwi_excUsageFault__I                   
1002bb01  ti_sysbios_heaps_HeapTrack_free__E                              
1002bc61  ti_sysbios_family_arm_m3_Hwi_excMemFault__I                     
1002bda9  ti_sysbios_family_arm_m3_Hwi_excFillContext__I                  
1002beb5  ti_sysbios_family_arm_m3_Hwi_excHandlerMax__I                   
1002bfb1  ti_sysbios_knl_Semaphore_pend__E                                
1002c0a5  ti_sysbios_knl_Event_pend__E                                    
1002c185  ti_sysbios_family_arm_m3_Hwi_excHardFault__I                    
1002c251  ti_sysbios_knl_Task_Instance_init__E                            
1002c31d  ti_sysbios_family_arm_m3_Hwi_excDebugMon__I                     
1002c3d9  ti_sysbios_family_arm_m3_Hwi_postInit__I                        
1002c48d  ti_sysbios_knl_Mailbox_Instance_init__E                         
1002c53d  ti_sysbios_knl_Clock_workFuncDynamic__E                         
1002c5d9  ti_sysbios_heaps_HeapTrack_Instance_finalize__E                 
1002c671  ti_sysbios_knl_Task_Instance_finalize__E                        
1002c709  ti_sysbios_family_arm_cc26xx_Timer_periodicStub__E              
1002c79d  ti_sysbios_family_arm_m3_Hwi_Instance_init__E                   
1002c831  ti_sysbios_family_arm_m3_Hwi_initNVIC__E                        
1002c8c1  ti_sysbios_heaps_HeapTrack_alloc__E                             
1002c94d  ti_sysbios_knl_Clock_startI__E                                  
1002c9d5  ti_sysbios_knl_Swi_restoreHwi__E                                
1002ca59  ti_sysbios_knl_Task_postInit__I                                 
1002cad9  ti_sysbios_knl_Clock_workFunc__E                                
1002cb51  ti_sysbios_heaps_HeapMem_allocUnprotected__E                    
1002cbc5  ti_sysbios_knl_Clock_walkQueueDynamic__E                        
1002cc39  ti_sysbios_knl_Task_schedule__I                                 
1002ccad  ti_sysbios_knl_Task_startCore__E                                
1002cd21  ti_sysbios_knl_Semaphore_post__E                                
1002cd91  ti_sysbios_knl_Swi_run__I                                       
1002ce01  ti_sysbios_knl_Task_sleep__E                                    
1002ce71  ti_sysbios_family_arm_m3_Hwi_Instance_finalize__E               
1002cedd  ti_sysbios_family_arm_m3_Hwi_dispatchC__I                       
1002cf49  ti_sysbios_knl_Mailbox_post__E                                  
1002cfb3  ti_sysbios_knl_Event_post__E                                    
1002d01b  ti_sysbios_BIOS_linkedWithIncorrectBootLibrary__E               
1002d01d  ti_sysbios_knl_Semaphore_Instance_init__E                       
1002d081  ti_sysbios_knl_Swi_runLoop__I                                   
1002d0e1  ti_sysbios_knl_Swi_schedule__I                                  
1002d141  ti_sysbios_knl_Task_Module_startup__E                           
1002d1a1  ti_sysbios_family_arm_m3_Hwi_create                             
1002d1fd  ti_sysbios_hal_Hwi_create                                       
1002d259  ti_sysbios_heaps_HeapMem_alloc__E                               
1002d2b5  ti_sysbios_knl_Mailbox_Instance_finalize__E                     
1002d311  ti_sysbios_knl_Mailbox_create                                   
1002d36d  ti_sysbios_knl_Swi_Instance_init__E                             
1002d3c9  ti_sysbios_family_arm_m3_Hwi_Module_startup__E                  
1002d421  ti_sysbios_family_arm_m3_Hwi_construct                          
1002d479  ti_sysbios_heaps_HeapMem_freeUnprotected__E                     
1002d4d1  ti_sysbios_knl_Mailbox_construct                                
1002d529  ti_sysbios_knl_Task_create                                      
1002d581  ti_sysbios_knl_Mailbox_pend__E                                  
1002d5d7  ti_sysbios_gates_GateHwi_Instance_init__E                       
1002d5d9  ti_sysbios_knl_Task_construct                                   
1002d62d  ti_sysbios_family_arm_m3_Hwi_excReserved__I                     
1002d67d  ti_sysbios_knl_Task_allBlockedFunction__I                       
1002d6cd  ti_sysbios_heaps_HeapMem_getStats__E                            
1002d719  ti_sysbios_knl_Swi_construct                                    
1002d765  ti_sysbios_knl_Swi_create                                       
1002d7b1  ti_sysbios_knl_Task_blockI__E                                   
1002d7fd  ti_sysbios_knl_Task_yield__E                                    
1002d849  ti_sysbios_heaps_HeapMem_Instance_init__E                       
1002d891  ti_sysbios_knl_Swi_post__E                                      
1002d8d9  ti_sysbios_family_arm_m3_Hwi_disableInterrupt__E                
1002d8d9  ti_sysbios_hal_Hwi_HwiProxy_disableInterrupt__E                 
1002d8d9  ti_sysbios_hal_Hwi_HwiProxy_disableInterrupt__E                 
1002d8d9  ti_sysbios_hal_Hwi_disableInterrupt__E                          
1002d8d9  ti_sysbios_hal_Hwi_disableInterrupt__E                          
1002d91d  ti_sysbios_family_arm_m3_Hwi_enableInterrupt__E                 
1002d91d  ti_sysbios_hal_Hwi_HwiProxy_enableInterrupt__E                  
1002d91d  ti_sysbios_hal_Hwi_HwiProxy_enableInterrupt__E                  
1002d91d  ti_sysbios_hal_Hwi_enableInterrupt__E                           
1002d91d  ti_sysbios_hal_Hwi_enableInterrupt__E                           
1002d961  ti_sysbios_family_arm_m3_Hwi_excNoIsr__I                        
1002d9a5  ti_sysbios_family_arm_m3_Hwi_excSvCall__I                       
1002d9e9  ti_sysbios_family_arm_m3_Hwi_getStackInfo__E                    
1002d9e9  ti_sysbios_hal_Hwi_HwiProxy_getStackInfo__E                     
1002d9e9  ti_sysbios_hal_Hwi_HwiProxy_getStackInfo__E                     
1002d9e9  ti_sysbios_hal_Hwi_getStackInfo__E                              
1002d9e9  ti_sysbios_hal_Hwi_getStackInfo__E                              
1002da2d  ti_sysbios_knl_Mailbox_Module_startup__E                        
1002da71  ti_sysbios_family_arm_m3_Hwi_excNmi__I                          
1002daad  ti_sysbios_family_arm_m3_Hwi_getHandle__E                       
1002dae9  ti_sysbios_family_arm_m3_TaskSupport_start__E                   
1002dae9  ti_sysbios_knl_Task_SupportProxy_start__E                       
1002dae9  ti_sysbios_knl_Task_SupportProxy_start__E                       
1002db25  ti_sysbios_knl_Clock_create                                     
1002db61  SwiP_restore                                                    
1002db61  ti_sysbios_knl_Swi_restore__E                                   
1002db9d  ti_sysbios_knl_Task_exit__E                                     
1002dbd7  ti_sysbios_knl_Clock_logTick__E                                 
1002dbd9  ti_sysbios_heaps_HeapMem_free__E                                
1002dc11  ClockP_getSystemTicks                                           
1002dc11  ti_sysbios_knl_Clock_getTicks__E                                
1002dc49  ti_sysbios_knl_Semaphore_create                                 
1002dc81  ti_sysbios_knl_Task_processVitalTaskFlag__I                     
1002dcb9  ti_sysbios_knl_Task_unblockI__E                                 
1002dcf1  ti_sysbios_family_arm_cc26xx_Timer_startup__E                   
1002dcf1  ti_sysbios_knl_Clock_TimerProxy_startup__E                      
1002dcf1  ti_sysbios_knl_Clock_TimerProxy_startup__E                      
1002dd25  ti_sysbios_heaps_HeapMem_init__I                                
1002dd59  ti_sysbios_knl_Clock_Instance_init__E                           
1002dd8d  ti_sysbios_knl_Clock_construct                                  
1002ddc1  ti_sysbios_knl_Semaphore_construct                              
1002ddf5  ti_sysbios_family_arm_m3_Hwi_excHandler__I                      
1002de25  ti_sysbios_gates_GateMutex_Object__create__S                    
1002de55  ti_sysbios_gates_GateMutex_create                               
1002de85  ti_sysbios_heaps_HeapMem_Object__create__S                      
1002deb5  ti_sysbios_knl_Event_create                                     
1002dee5  ti_sysbios_knl_Queue_construct                                  
1002df15  ti_sysbios_knl_Queue_create                                     
1002df45  ti_sysbios_knl_Task_restore__E                                  
1002df75  ti_sysbios_hal_Hwi_initStack                                    
1002dfa3  ti_sysbios_knl_Clock_triggerFunc__I                             
1002dfa5  ti_sysbios_family_arm_cc26xx_Timer_Module_startup__E            
1002dfd1  ti_sysbios_family_arm_cc26xx_Timer_postInit__I                  
1002dffd  ti_sysbios_family_arm_cc26xx_TimestampProvider_get64__E         
1002dffd  xdc_runtime_Timestamp_SupportProxy_get64__E                     
1002dffd  xdc_runtime_Timestamp_SupportProxy_get64__E                     
1002dffd  xdc_runtime_Timestamp_get64__E                                  
1002dffd  xdc_runtime_Timestamp_get64__E                                  
1002e029  ti_sysbios_gates_GateHwi_Object__create__S                      
1002e055  ti_sysbios_gates_GateMutex_construct                            
1002e081  ti_sysbios_heaps_HeapTrack_Object__create__S                    
1002e0ad  ti_sysbios_heaps_HeapTrack_create                               
1002e0d9  ti_sysbios_knl_Event_construct                                  
1002e105  ti_sysbios_knl_Event_pendTimeout__I                             
1002e131  ti_sysbios_knl_Semaphore_pendTimeout__I                         
1002e15d  ti_sysbios_family_arm_cc26xx_Timer_Module__startupDone__S       
1002e15d  ti_sysbios_knl_Clock_TimerProxy_Module__startupDone__S          
1002e185  ti_sysbios_family_arm_m3_Hwi_Module__startupDone__S             
1002e185  ti_sysbios_hal_Hwi_HwiProxy_Module__startupDone__S              
1002e1ad  ti_sysbios_family_arm_m3_Hwi_Object__delete__S                  
1002e1d5  ti_sysbios_family_arm_m3_Hwi_Object__get__S                     
1002e1fd  ti_sysbios_gates_GateMutex_Object__delete__S                    
1002e225  ti_sysbios_gates_GateMutex_enter__E                             
1002e24d  ti_sysbios_hal_Hwi_Object__delete__S                            
1002e275  ti_sysbios_heaps_HeapMem_Object__get__S                         
1002e29d  ti_sysbios_knl_Clock_Object__delete__S                          
1002e2c5  ti_sysbios_knl_Clock_stop__E                                    
1002e2ed  ti_sysbios_knl_Idle_run__E                                      
1002e315  ti_sysbios_knl_Mailbox_Object__delete__S                        
1002e33d  ti_sysbios_knl_Mailbox_Object__get__S                           
1002e365  ti_sysbios_knl_Semaphore_Object__delete__S                      
1002e38d  ti_sysbios_knl_Swi_Object__get__S                               
1002e3b5  ti_sysbios_knl_Task_Object__delete__S                           
1002e3dd  ti_sysbios_knl_Task_restoreHwi__E                               
1002e405  ti_sysbios_knl_Mailbox_postInit__I                              
1002e42b  ti_sysbios_knl_Swi_Instance_finalize__E                         
1002e42d  ti_sysbios_family_arm_cc26xx_TimestampProvider_Module_startup__E
1002e451  ti_sysbios_family_arm_m3_Hwi_Handle__label__S                   
1002e451  ti_sysbios_hal_Hwi_HwiProxy_Handle__label__S                    
1002e475  ti_sysbios_family_arm_m3_Hwi_destruct                           
1002e499  ti_sysbios_gates_GateHwi_Handle__label__S                       
1002e499  xdc_runtime_Main_Module_GateProxy_Handle__label__S              
1002e499  xdc_runtime_System_Module_GateProxy_Handle__label__S            
1002e4bd  ti_sysbios_gates_GateHwi_Object__delete__S                      
1002e4e1  ti_sysbios_BIOS_RtsGateProxy_Handle__label__S                   
1002e4e1  ti_sysbios_gates_GateMutex_Handle__label__S                     
1002e4e1  ti_sysbios_heaps_HeapMem_Module_GateProxy_Handle__label__S      
1002e505  ti_sysbios_gates_GateMutex_destruct                             
1002e529  ti_sysbios_heaps_HeapMem_Handle__label__S                       
1002e529  xdc_runtime_Memory_HeapProxy_Handle__label__S                   
1002e54d  ti_sysbios_heaps_HeapMem_Object__delete__S                      
1002e571  ti_sysbios_heaps_HeapTrack_Handle__label__S                     
1002e595  ti_sysbios_heaps_HeapTrack_Instance_init__E                     
1002e5b9  ti_sysbios_heaps_HeapTrack_Object__delete__S                    
1002e5dd  ti_sysbios_heaps_HeapTrack_getStats__E                          
1002e601  ti_sysbios_knl_Clock_Module_startup__E                          
1002e625  ti_sysbios_knl_Clock_addI__E                                    
1002e649  ti_sysbios_knl_Clock_destruct                                   
1002e66d  ti_sysbios_knl_Event_Object__delete__S                          
1002e691  ti_sysbios_knl_Mailbox_destruct                                 
1002e6b5  ti_sysbios_knl_Queue_Object__delete__S                          
1002e6d9  ti_sysbios_knl_Semaphore_Instance_finalize__E                   
1002e6fd  ti_sysbios_knl_Semaphore_destruct                               
1002e721  ti_sysbios_knl_Swi_Handle__label__S                             
1002e745  ti_sysbios_knl_Swi_Module_startup__E                            
1002e769  ti_sysbios_knl_Swi_Object__delete__S                            
1002e78d  ti_sysbios_knl_Task_Handle__label__S                            
1002e7b1  ti_sysbios_knl_Task_Object__get__S                              
1002e7d5  ti_sysbios_knl_Task_destruct                                    
1002e7f9  ti_sysbios_knl_Task_enter__I                                    
1002e81d  ti_sysbios_knl_Clock_scheduleNextTick__E                        
1002e83d  ti_sysbios_knl_Event_checkEvents__I                             
1002e85d  ti_sysbios_knl_Event_destruct                                   
1002e87d  ti_sysbios_knl_Queue_Object__get__S                             
1002e89d  ti_sysbios_knl_Queue_destruct                                   
1002e8bd  ti_sysbios_knl_Swi_destruct                                     
1002e8dd  ti_sysbios_hal_Hwi_Instance_init__E                             
1002e8fd  ti_sysbios_family_arm_m3_Hwi_plug__E                            
1002e919  ti_sysbios_family_arm_m3_Hwi_setPriority__E                     
1002e935  ti_sysbios_family_arm_m3_Hwi_switchFromBootStack__E             
1002e935  ti_sysbios_hal_Hwi_HwiProxy_switchFromBootStack__E              
1002e935  ti_sysbios_hal_Hwi_HwiProxy_switchFromBootStack__E              
1002e935  ti_sysbios_hal_Hwi_switchFromBootStack__E                       
1002e935  ti_sysbios_hal_Hwi_switchFromBootStack__E                       
1002e951  ti_sysbios_knl_Queue_get__E                                     
1002e96d  ti_sysbios_knl_Queue_put__E                                     
1002e989  ti_sysbios_knl_Task_sleepTimeout__I                             
1002e9a3  ti_sysbios_knl_Task_unblock__E                                  
1002e9bb  ti_sysbios_gates_GateMutex_Instance_init__E                     
1002e9d1  ti_sysbios_knl_Clock_Instance_finalize__E                       
1002e9e7  ti_sysbios_knl_Clock_start__E                                   
1002e9fd  ti_sysbios_BIOS_getCpuFreq__E                                   
1002ea11  ti_sysbios_BIOS_setThreadType__E                                
1002ea25  ti_sysbios_knl_Swi_disable__E                                   
1002ea39  ti_sysbios_knl_Swi_enabled__E                                   
1002ea4d  ti_sysbios_knl_Task_disable__E                                  
1002ea61  ti_sysbios_hal_Hwi_Module_startup__E                            
1002ea73  ti_sysbios_knl_Event_sync__E                                    
1002ea85  ti_sysbios_BIOS_exit__E                                         
1002ea95  ti_sysbios_BIOS_getThreadType__E                                
1002eaa5  ti_sysbios_BIOS_start__E                                        
1002eab5  ti_sysbios_family_arm_m3_TaskSupport_getStackAlignment__E       
1002eab5  ti_sysbios_knl_Task_SupportProxy_getStackAlignment__E           
1002eab5  ti_sysbios_knl_Task_SupportProxy_getStackAlignment__E           
1002eac5  ti_sysbios_knl_Clock_TimerProxy_getCurrentTick__E               
1002ead5  ti_sysbios_knl_Clock_TimerProxy_getMaxTicks__E                  
1002eae5  ti_sysbios_knl_Clock_TimerProxy_setNextTick__E                  
1002eaf5  ti_sysbios_knl_Task_self__E                                     
1002eb05  ti_sysbios_gates_GateMutex_leave__E                             
1002eb13  ti_sysbios_heaps_HeapMem_restore__E                             
1002eb21  ti_sysbios_knl_Queue_empty__E                                   
1002eb2f  ti_sysbios_knl_Queue_remove__E                                  
1002eb3d  ti_sysbios_family_arm_cc26xx_TimestampProvider_getFreq__E       
1002eb3d  xdc_runtime_Timestamp_SupportProxy_getFreq__E                   
1002eb3d  xdc_runtime_Timestamp_SupportProxy_getFreq__E                   
1002eb3d  xdc_runtime_Timestamp_getFreq__E                                
1002eb3d  xdc_runtime_Timestamp_getFreq__E                                
1002eb49  ti_sysbios_family_arm_m3_Hwi_Params__init__S                    
1002eb49  ti_sysbios_hal_Hwi_HwiProxy_Params__init__S                     
1002eb55  ti_sysbios_family_arm_m3_Hwi_disableFxn__E                      
1002eb61  ti_sysbios_family_arm_m3_Hwi_enableFxn__E                       
1002eb6d  ti_sysbios_gates_GateHwi_enter__E                               
1002eb79  ti_sysbios_BIOS_RtsGateProxy_Params__init__S                    
1002eb79  ti_sysbios_gates_GateMutex_Params__init__S                      
1002eb79  ti_sysbios_heaps_HeapMem_Module_GateProxy_Params__init__S       
1002eb85  ti_sysbios_heaps_HeapTrack_Params__init__S                      
1002eb91  ti_sysbios_heaps_HeapTrack_isBlocking__E                        
1002eb9d  ti_sysbios_knl_Clock_Params__init__S                            
1002eba9  ti_sysbios_knl_Clock_getTimerHandle__E                          
1002ebb5  ti_sysbios_knl_Event_Params__init__S                            
1002ebc1  ti_sysbios_knl_Mailbox_Params__init__S                          
1002ebcd  ti_sysbios_knl_Queue_dequeue__E                                 
1002ebd9  ti_sysbios_knl_Queue_enqueue__E                                 
1002ebe5  ti_sysbios_knl_Semaphore_Params__init__S                        
1002ebf1  ti_sysbios_knl_Swi_Params__init__S                              
1002ebfd  ti_sysbios_knl_Swi_self__E                                      
1002ec09  ti_sysbios_knl_Task_Params__init__S                             
1002ec15  ti_sysbios_hal_Hwi_Instance_finalize__E                         
1002ec1f  ti_sysbios_knl_Event_Instance_init__E                           
1002ec29  ti_sysbios_family_arm_m3_Hwi_doSwiRestore__I                    
1002ec31  ti_sysbios_family_arm_m3_Hwi_startup__E                         
1002ec31  ti_sysbios_hal_Hwi_HwiProxy_startup__E                          
1002ec31  ti_sysbios_hal_Hwi_HwiProxy_startup__E                          
1002ec31  ti_sysbios_hal_Hwi_startup__E                                   
1002ec31  ti_sysbios_hal_Hwi_startup__E                                   
1002ec39  ti_sysbios_knl_Idle_loop__E                                     
1002ec41  ti_sysbios_family_arm_m3_Hwi_doTaskRestore__I                   
1002ec47  HwiP_restore                                                    
1002ec47  ti_sysbios_family_arm_m3_Hwi_restoreFxn__E                      
1002ec4d  ti_sysbios_gates_GateHwi_leave__E                               
1002ec53  ti_sysbios_gates_GateMutex_Instance_finalize__E                 
1002ec59  ti_sysbios_heaps_HeapMem_isBlocking__E                          
1002ec5f  ti_sysbios_knl_Queue_Instance_init__E                           
1002ec65  ti_sysbios_knl_Queue_elemClear__E                               
1002ec6b  ti_sysbios_knl_Swi_startup__E                                   
1002ec71  ti_sysbios_knl_Task_enable__E                                   
1002ec77  ti_sysbios_BIOS_RtsGateProxy_enter__E                           
1002ec7b  ti_sysbios_BIOS_RtsGateProxy_leave__E                           
1002ec7f  ti_sysbios_family_arm_cc26xx_Timer_getExpiredTicks__E           
1002ec83  ti_sysbios_family_arm_cc26xx_Timer_getPeriod__E                 
1002ec87  ti_sysbios_family_arm_cc26xx_Timer_setPeriod__E                 
1002ec8b  ti_sysbios_family_arm_m3_Hwi_delete                             
1002ec8f  ti_sysbios_family_arm_m3_TaskSupport_Module__startupDone__S     
1002ec8f  ti_sysbios_knl_Task_SupportProxy_Module__startupDone__S         
1002ec93  ti_sysbios_gates_GateHwi_query__E                               
1002ec93  xdc_runtime_Main_Module_GateProxy_query__E                      
1002ec93  xdc_runtime_System_Module_GateProxy_query__E                    
1002ec93  xdc_runtime_System_Module_GateProxy_query__E                    
1002ec97  ti_sysbios_gates_GateMutex_delete                               
1002ec9b  ti_sysbios_BIOS_RtsGateProxy_query__E                           
1002ec9b  ti_sysbios_BIOS_RtsGateProxy_query__E                           
1002ec9b  ti_sysbios_gates_GateMutex_query__E                             
1002ec9b  ti_sysbios_heaps_HeapMem_Module_GateProxy_query__E              
1002ec9b  ti_sysbios_heaps_HeapMem_Module_GateProxy_query__E              
1002ec9f  ti_sysbios_hal_Hwi_HwiProxy_create                              
1002eca3  ti_sysbios_hal_Hwi_HwiProxy_delete                              
1002eca7  ti_sysbios_hal_Hwi_delete                                       
1002ecab  ti_sysbios_heaps_HeapMem_Module_GateProxy_enter__E              
1002ecaf  ti_sysbios_heaps_HeapMem_Module_GateProxy_leave__E              
1002ecb3  ti_sysbios_knl_Clock_TimerProxy_getExpiredTicks__E              
1002ecb7  ti_sysbios_knl_Clock_TimerProxy_getPeriod__E                    
1002ecbb  ti_sysbios_knl_Clock_delete                                     
1002ecbf  ti_sysbios_knl_Clock_removeI__E                                 
1002ecc3  ti_sysbios_knl_Clock_setTimeout__E                              
1002ecc7  ti_sysbios_knl_Event_delete                                     
1002eccb  ti_sysbios_knl_Mailbox_delete                                   
1002eccf  ti_sysbios_knl_Queue_delete                                     
1002ecd3  ti_sysbios_knl_Queue_head__E                                    
1002ecd7  ti_sysbios_knl_Queue_next__E                                    
1002ecdb  ti_sysbios_knl_Semaphore_delete                                 
1002ecdf  ti_sysbios_knl_Swi_delete                                       
1002ece3  ti_sysbios_knl_Swi_postInit__I                                  
1002ece7  ti_sysbios_knl_Task_delete                                      
1002eceb  ti_sysbios_knl_Task_startup__E                                  
1002ecf1  xdc_runtime_System_doPrint__I                                   
1002f055  xdc_runtime_Startup_startMods__I                                
1002f15d  xdc_runtime_Text_putSite__E                                     
1002f1f7  xdc_runtime_Error_policySpin__E                                 
1002f1f9  xdc_runtime_Text_putMod__E                                      
1002f289  xdc_runtime_Memory_alloc__E                                     
1002f2f9  xdc_runtime_Core_createObject__I                                
1002f367  xdc_runtime_Core_deleteObject__I                                
1002f3c5  xdc_runtime_Text_putLab__E                                      
1002f421  xdc_runtime_Assert_raise__I                                     
1002f475  xdc_runtime_Startup_exec__E                                     
1002f4c9  xdc_runtime_Core_assignParams__I                                
1002f511  xdc_runtime_Core_constructObject__I                             
1002f559  xdc_runtime_System_atexit__E                                    
1002f5a1  xdc_runtime_Text_xprintf__I                                     
1002f5e5  xdc_runtime_System_processAtExit__E                             
1002f625  xdc_runtime_System_putchar__I                                   
1002f659  xdc_runtime_Core_assignLabel__I                                 
1002f689  xdc_runtime_Text_printVisFxn__I                                 
1002f6b9  xdc_runtime_System_vprintf__E                                   
1002f6e5  xdc_runtime_Text_cordText__E                                    
1002f711  xdc_runtime_System_abort__E                                     
1002f739  xdc_runtime_Error_raiseX__E                                     
1002f759  xdc_runtime_Registry_findById__E                                
1002f779  xdc_runtime_Error_check__E                                      
1002f795  xdc_runtime_Memory_valloc__E                                    
1002f7b1  xdc_runtime_System_exit__E                                      
1002f7cd  xdc_runtime_Text_ropeText__E                                    
1002f7e9  xdc_runtime_System_printf__E                                    
1002f803  xdc_runtime_Core_destructObject__I                              
1002f81b  xdc_runtime_System_abortSpin__E                                 
1002f81d  xdc_runtime_Memory_free__E                                      
1002f831  xdc_runtime_Memory_getStats__E                                  
1002f845  xdc_runtime_SysCallback_abort__E                                
1002f845  xdc_runtime_System_SupportProxy_abort__E                        
1002f859  xdc_runtime_SysCallback_exit__E                                 
1002f859  xdc_runtime_System_SupportProxy_exit__E                         
1002f86d  xdc_runtime_SysCallback_flush__E                                
1002f86d  xdc_runtime_System_SupportProxy_flush__E                        
1002f86d  xdc_runtime_System_flush__E                                     
1002f881  xdc_runtime_SysCallback_putch__E                                
1002f881  xdc_runtime_System_SupportProxy_putch__E                        
1002f895  xdc_runtime_SysCallback_ready__E                                
1002f895  xdc_runtime_System_SupportProxy_ready__E                        
1002f8a9  xdc_runtime_Memory_getMaxDefaultTypeAlign__E                    
1002f8b9  xdc_runtime_System_vsnprintf__E                                 
1002f8c9  xdc_runtime_Timestamp_SupportProxy_get32__E                     
1002f8c9  xdc_runtime_Timestamp_SupportProxy_get32__E                     
1002f8c9  xdc_runtime_Timestamp_get32__E                                  
1002f8c9  xdc_runtime_Timestamp_get32__E                                  
1002f8d9  xdc_runtime_Memory_calloc__E                                    
1002f8e5  xdc_runtime_Startup_rtsDone__E                                  
1002f8f1  xdc_runtime_Memory_HeapProxy_alloc__E                           
1002f8fb  xdc_runtime_Memory_HeapProxy_free__E                            
1002f905  xdc_runtime_Memory_HeapProxy_getStats__E                        
1002f90f  xdc_runtime_Gate_leaveSystem__E                                 
1002f915  xdc_runtime_System_Module_startup__E                            
1002f91b  xdc_runtime_Gate_enterSystem__E                                 
1002f91f  xdc_runtime_SysCallback_Module__startupDone__S                  
1002f91f  xdc_runtime_System_SupportProxy_Module__startupDone__S          
1002f923  xdc_runtime_System_Module_GateProxy_enter__E                    
1002f927  xdc_runtime_System_Module_GateProxy_leave__E                    
1002f92b  xdc_runtime_System_printf_va__F                                 
1002f92f  xdc_runtime_System_exitSpin__E                                  
1002f931  ti_sysbios_family_arm_m3_Hwi_dispatch__I                        
1002fa11  ti_sysbios_family_arm_m3_Hwi_interruptsAreDisabledButShouldNotBe
1002fa2d  ti_sysbios_family_arm_m3_TaskSupport_buildTaskStack             
1002fab9  ti_sysbios_family_arm_m3_Hwi_initStacks__E                      
1002fb11  ti_sysbios_family_arm_m3_Hwi_pendSV__I                          
1002fb35  ti_sysbios_family_arm_m3_Hwi_return                             
1002fb39  ti_sysbios_family_arm_m3_Hwi_excHandlerAsm__I                   
1002fb59  ti_sysbios_family_xxx_Hwi_switchAndRunFunc                      
1002fb77  ti_sysbios_family_arm_m3_TaskSupport_swap__E                    
1002fb77  ti_sysbios_knl_Task_SupportProxy_swap__E                        
1002fb77  ti_sysbios_knl_Task_SupportProxy_swap__E                        
1002fb83  ti_sysbios_knl_Task_swapReturn                                  
1002fb8f  ti_sysbios_family_arm_m3_TaskSupport_glue                       
1002fba0  ti_sysbios_knl_Task_Object__PARAMS__C                           
1002fbdc  ti_sysbios_knl_Mailbox_Object__PARAMS__C                        
1002fc10  ti_sysbios_family_arm_m3_Hwi_Object__PARAMS__C                  
1002fc40  ti_sysbios_hal_Hwi_Object__PARAMS__C                            
1002fc6c  ti_sysbios_knl_Swi_Object__PARAMS__C                            
1002fc94  ti_sysbios_heaps_HeapMem_Object__PARAMS__C                      
1002fcb8  ti_sysbios_knl_Clock_Object__PARAMS__C                          
1002fcdc  ti_sysbios_knl_Semaphore_Object__PARAMS__C                      
1002fd00  ti_sysbios_gates_GateHwi_Object__PARAMS__C                      
1002fd18  ti_sysbios_gates_GateMutex_Object__PARAMS__C                    
1002fd30  ti_sysbios_knl_Event_Object__PARAMS__C                          
1002fd48  ti_sysbios_knl_Queue_Object__PARAMS__C                          
1002fd80  ti_sysbios_heaps_HeapTrack_Object__PARAMS__C                    
1002fd9c  ti_sysbios_heaps_HeapTrack_Instance_State_trackQueue__O         
1002fda0  ti_sysbios_heaps_HeapTrack_Module__diagsEnabled__C              
1002fda4  ti_sysbios_heaps_HeapTrack_Module__diagsIncluded__C             
1002fda8  ti_sysbios_heaps_HeapTrack_Module__diagsMask__C                 
1002fddb  strlen                                                          
10030101  FHAPI_start                                                     
1003035d  FHAPI_completeTxCb                                              
10030501  FHAPI_completeRxCb                                              
10030689  FHAPI_sendData                                                  
10030809  FHAPI_reset                                                     
100308d1  FHAPI_getTxParams_old                                           
10030989  FHAPI_startBS                                                   
10030a21  FHAPI_getTxParams                                               
10030a81  FHAPI_getRemDT                                                  
10030ad1  FHAPI_SFDRxCb                                                   
10030b11  FHAPI_stopAsync                                                 
10030b51  FHAPI_setStateCb                                                
10030b81  FHAPI_getTxChHoppingFunc                                        
10030bad  FHAPI_getBitCount                                               
10030bd1  FHDATA_procASYNCReq                                             
10030cb5  FHDATA_CheckMinTxOffTime                                        
10030d61  FHDATA_getPktFromQueue                                          
10030e05  FHDATA_purgeUnSupportedFrameTypes                               
10030e89  FHDATA_purgePktFromQueue                                        
10030efd  FHDATA_requeuePkt                                               
10030f65  FHDATA_getASYNCDelay                                            
10030fb5  FHDATA_chkASYNCStartReq                                         
10030fed  FHDATA_updateCCA                                                
10031011  FHDATA_asyncMinTxOffTimerCb                                     
10031029  FHDATA_checkPktFromQueue                                        
1003103d  FHDATA_procEDFEReq                                              
10031051  FHDATA_startEDFEReq                                             
10031065  FHDATA_startEDFETimer                                           
10031069  FHDH1CF_hashword                                                
10031129  FHDH1CF_getBCChannelNum                                         
100311ad  FHDH1CF_mapChIdxChannel                                         
10031209  FHDH1CF_getCh                                                   
1003125d  FHDH1CF_getChannelNum                                           
100312b1  FHDH1CF_getTxChannelNum                                         
100312f5  FHDH1CF_getBcCh                                                 
10031325  FHIE_genPieContent                                              
10031699  FHIE_parsePie                                                   
1003197d  FHIE_extractPie                                                 
10031ba9  FHIE_parseCommonInformation                                     
10031d91  FHIE_genHie                                                     
10031ec9  FHIE_parseHie                                                   
10031fed  FHIE_genCommonInformation                                       
1003210d  FHIE_genPie                                                     
1003220d  FHIE_getPieContentLen                                           
1003230d  FHIE_extractHie                                                 
100323cd  FHIE_genExcludedChannelRanges                                   
1003248d  FHIE_genBTIE                                                    
10032519  FHIE_getCcaSfdTime                                              
10032599  FHIE_getPieLen                                                  
10032619  FHIE_getHieLen                                                  
10032689  FHIE_genExcludedChannelMask                                     
100326f1  FHIE_getChannelPlan                                             
10032755  FHIE_genUTIE                                                    
100327b1  FHIE_getCommonInformationLen                                    
10032805  FHIE_isChannelPlanValid                                         
10032859  FHIE_getExcludedChannelControl                                  
10032895  FHIE_getSubPie                                                  
100328cf  FHIE_getPie                                                     
10032905  FHIE_gen                                                        
10032939  FHIE_getHie                                                     
1003296d  FHIE_getLen                                                     
1003299d  FHMGR_bcTimerIsrCb                                              
10032acd  FHMGR_updateRadioUCChannel                                      
10032b45  FHMGR_updateRadioBCChannel                                      
10032bb5  FHMGR_ucTimerIsrCb                                              
10032c1d  FHMGR_macStartFHTimer                                           
10032c75  FHMGR_updateHopping                                             
10032cc9  FHMGR_macStartOneShotTimer                                      
10032cf5  FHMGR_BCTimerEventUpd                                           
10032d11  FHMGR_macCancelFHTimer                                          
10032d29  FHMGR_macGetElapsedFHTime                                       
10032d41  FHMGR_pendBcChUpdate                                            
10032d47  FHMGR_pendUcChUpdate                                            
10032d4d  FHNT_purgeEntry                                                 
10032ea1  FHNT_getRemoveEntryFromTemp                                     
10032fe1  FHNT_getEntry                                                   
10033119  FHNT_AddDeviceCB                                                
10033209  FHNT_createEntry                                                
100332c5  FHNT_createFixedEntry                                           
10033381  FHNT_addTempEUI                                                 
10033429  FHNT_initTempTable                                              
100334c5  FHNT_getRemoveEntry                                             
1003355d  FHNT_getRemoveFixedEntry                                        
100335f5  FHNT_getFixedEntry                                              
10033671  FHNT_getNTIndexFromTempIndex                                    
100336e5  FHNT_getOptEntry                                                
1003374d  FHNT_addOptEntry                                                
100337b1  FHNT_DelDeviceCB                                                
10033811  FHNT_reset                                                      
1003386d  FHNT_delTempIndex                                               
100338c1  FHNT_getFixedNTIndexFromTempIndex                               
10033915  FHNT_putEntry                                                   
10033969  FHNT_getAvailEntry                                              
100339b1  FHNT_putFixedEntry                                              
100339f9  FHNT_getEUI                                                     
10033a3d  FHNT_purgeTimerIsrCb                                            
10033a75  FHNT_init                                                       
10033aa9  FHNT_assessTime                                                 
10033ac9  FHPIB_set                                                       
10033ca5  FHPIB_get                                                       
10033cf5  FHPIB_getLen                                                    
10033d25  FHPIB_getIndex                                                  
10033d41  FHPIB_reset                                                     
10033d59  FHSM_event                                                      
10033d9d  FSM_transaction_debug                                           
10033dcd  FHUTIL_adjBackOffDur                                            
10033f09  FHUTIL_getBcTxParams                                            
10033fc9  FHUTIl_updateBTIE                                               
1003404d  FHUTIL_getTxChannel                                             
100340cd  FHUTIL_getCurBfio                                               
10034149  FHUTIL_getGuardTime                                             
100341c1  FHUTIL_getBitCounts                                             
10034219  FHUTIL_getChannelSpacing                                        
10034261  FHUTIL_getCurUfsi                                               
100342a9  FHUTIL_getCh0                                                   
100342e1  FHUTIL_getMaxChannels                                           
10034319  FHUTIL_getTxUfsi                                                
10034349  FHUTIL_updateBcNumChannels                                      
10034375  FHUTIL_updateUcNumChannels                                      
100343a1  FHUTIL_getUcChannel                                             
100343c9  FHUTIL_getElapsedTime                                           
100343e5  FHUTIL_compBfioTxTime                                           
100343fd  FHUTIL_assert                                                   
10034411  FHUTIL_calcUfsi                                                 
1003441b  FHUTIL_elapsedTime                                              
1003441f  FHUTIL_noAction                                                 
10034421  macTxBeaconCompleteCallback                                     
10034545  macBeaconStartContinue                                          
100346a1  macBeaconPrepareCallback                                        
10034715  macBeaconCheckStartTime                                         
10034781  macBeaconTxCallback                                             
100347ed  macBeaconSetupBroadcast                                         
10034849  MAC_InitBeaconCoord                                             
10034895  macStartBeaconPrepareCallback                                   
100348e1  macBeaconSchedRequested                                         
10034921  macBeaconClearIndirect                                          
1003495d  macBeaconPeriodCallback                                         
10034999  macOutgoingNonSlottedTx                                         
100349d5  macBeaconSetPrepareTime                                         
10034a01  macBeaconCoordReset                                             
10034a25  macBeaconBattLifeCallback                                       
10034bcd  macApiSyncReq                                                   
10034e8d  macSyncTimeoutCallback                                          
10034f3d  macTrackStartCallback                                           
10034fd1  macTrackTimeoutCallback                                         
10035065  macBeaconSyncLoss                                               
100350ed  macCheckPendAddr                                                
10035159  MAC_InitBeaconDevice                                            
10035229  macBeaconStartFrameResponseTimer                                
10035289  macBeaconStopTrack                                              
100352cd  macIncomingNonSlottedTx                                         
10035311  macStartBroadcastPendTimer                                      
10035355  macBroadcastPendCallback                                        
10035369  macBeaconSetSched                                               
10035421  macBeaconSetupCap                                               
100354b5  macBeaconCheckTxTime                                            
10035535  macBeaconRequeue                                                
10035575  macBeaconInit                                                   
100355a9  macBeaconReset                                                  
100355dd  macBeaconCheckSched                                             
1003560d  macBuildAssociateRsp                                            
1003576d  macBuildBeacon                                                  
100358c5  macIndirectExpire                                               
100359d5  macStartSetParams                                               
10035ad5  macStartBegin                                                   
10035bb5  macBuildPendAddr                                                
10035c85  macCoordReset                                                   
10035d4d  macBuildRealign                                                 
10035e09  macIndirectSend                                                 
10035eb1  macApiPurgeReq                                                  
10035f55  macRxDataReq                                                    
10036085  macIndirectTxFrame                                              
100360fd  macApiOrphanRsp                                                 
10036171  macIndirectRequeueFrame                                         
100361e5  macIndirectMark                                                 
1003624d  MAC_InitCoord                                                   
100362b1  macRxAssociateReq                                               
10036309  macStartContinue                                                
10036355  macRxOrphan                                                     
10036399  macApiAssociateRsp                                              
100363d9  macStartComplete                                                
10036419  macRxBeaconReq                                                  
10036455  MAC_McpsPurgeReq                                                
10036471  MAC_MlmeAssociateRsp                                            
1003648d  MAC_MlmeOrphanRsp                                               
100364a9  macPendAddrLen                                                  
100364c5  macRxPanConflict                                                
100364e1  MAC_MlmeStartReq                                                
100364f9  macTxCompleteCallback                                           
10036729  MAC_McpsDataReq                                                 
100368cd  macDataTxSend                                                   
10036a61  macBuildDataFrame                                               
10036ba1  macAllocTxBuffer                                                
10036cd9  macRxCompleteCallback                                           
10036e05  MAC_McpsDataAlloc                                               
10036ef5  macApiDataReq                                                   
10036fc5  macAutoPendMaintainSrcMatchTable                                
10037079  macDataTxComplete                                               
1003712d  macDataTxEnqueue                                                
100371e1  macAutoPendAddSrcMatchTableEntry                                
10037279  macDataReset                                                    
100372f5  macFrameDurationSubG                                            
10037361  macCheckIndPacket                                               
100373b9  macDataRxInd                                                    
100373fd  macRxCheckMACPendingCallback                                    
1003742d  macRxCheckPendingCallback                                       
10037455  macDataRxMemAlloc                                               
10037479  macFrameDuration                                                
1003749d  macFrameDurationIeee                                            
100374c1  macDataSend                                                     
100374e1  macCheckSched                                                   
100374fd  macDataTxTimeAvailable                                          
10037515  macDataRxMemFree                                                
10037529  macDataTxDelayCallback                                          
1003753d  macSetSched                                                     
10037549  macBuildAssociateReq                                            
10037699  macApiAssociateReq                                              
100377a1  macDeviceReset                                                  
10037871  macRxAssocRsp                                                   
1003792d  macAssocDataRxInd                                               
100379b1  macPollDataRxInd                                                
10037a35  macRxCoordRealign                                               
10037ab9  macApiPollReq                                                   
10037b25  macAssocDataReqComplete                                         
10037b91  macPollDataReqComplete                                          
10037bed  macPollFrameResponseTimeout                                     
10037c45  MAC_InitDevice                                                  
10037c99  macAssocDataReq                                                 
10037ced  macAssocFailed                                                  
10037d35  macStartFrameResponseTimer                                      
10037d79  macAssociateCnf                                                 
10037db5  macAssocFrameResponseTimeout                                    
10037de9  macPollRxDisassoc                                               
10037e15  macStartResponseTimer                                           
10037e3d  macPollCnf                                                      
10037e61  macPollRxAssocRsp                                               
10037e85  macAssocRxDisassoc                                              
10037ea5  MAC_MlmeAssociateReq                                            
10037ebd  MAC_MlmePollReq                                                 
10037ed5  macPanConflictComplete                                          
10037ee9  macBuildPayloadIes                                              
10038005  macBuildHeaderIes                                               
100380d9  macBuildPayloadCoexistIe                                        
1003818d  macParseHeaderIes                                               
1003827d  macParsePayloadIes                                              
10038349  macUpdateHeaderIEPtr                                            
100383c5  macMlmeSubIePresent                                             
1003842b  macIeCoexistIePresent                                           
10038489  macUpdatePayloadIEPtr                                           
100384e5  macIeFreeList                                                   
10038501  macSendDataMsg                                                  
100385f1  macCbackForEvent                                                
100386a1  macSendMsg                                                      
1003871d  macExecute                                                      
10038791  macMainReset                                                    
100387f9  mac_msg_deallocate                                              
10038845  macSetEvent16                                                   
10038861  macSetEvent                                                     
1003887d  macStateIdleOrPolling                                           
10038899  macMainReserve                                                  
100388b1  macStateIdle                                                    
100388c9  macStateScanning                                                
100388e1  macMainSetTaskId                                                
100388f1  macBuildHeader                                                  
10038c1d  macBuildCommonReq                                               
10038e15  MAC_InitFH                                                      
10038f61  macBuildDisassociateReq                                         
10039095  macSetDefaultsByPhyID                                           
100391c9  MAC_MlmeResetReq                                                
100392e1  macBuildWSAsyncReq                                              
100393ed  macCommStatusInd                                                
100394f1  macBuildBeaconNotifyInd                                         
100395bd  macRxBeacon                                                     
1003967d  macMgmtReset                                                    
10039729  MAC_ResumeReq                                                   
100397c9  macDisassocComplete                                             
10039855  macBuildWSAsyncMsg                                              
100398d9  macRxDisassoc                                                   
10039955  macApiDisassociateReq                                           
100399cd  MAC_Init                                                        
10039a41  macCoordDestAddrCmp                                             
10039a99  macApiWSAsyncReq                                                
10039ae9  macDestAddrCmp                                                  
10039b35  macDestSAddrCmp                                                 
10039b81  macApiPending                                                   
10039bc1  macCoordAddrCmp                                                 
10039bfd  macSetDefaultsByRE                                              
10039c35  macGetCoordAddress                                              
10039c69  MAC_YieldReq                                                    
10039c95  macConflictSyncLossInd                                          
10039cbd  MAC_EnableFH                                                    
10039ce1  MAC_MlmeFHGetReq                                                
10039d01  MAC_MlmeFHGetReqSize                                            
10039d21  MAC_MlmeFHSetReq                                                
10039d41  MAC_StartFH                                                     
10039d61  macDefaultAction                                                
10039d81  macGetMyAddrMode                                                
10039da1  macWSAsyncCnf                                                   
10039dc1  MAC_MlmeDisassociateReq                                         
10039ddd  MAC_MlmeSyncReq                                                 
10039df5  MAC_MlmeWSAsyncReq                                              
10039e0d  macApiBadState                                                  
10039e25  macApiUnsupported                                               
10039e3d  macTxCsmaDelay                                                  
10039e55  MAC_RandomByte                                                  
10039e69  macBcTimerHandler                                               
10039e7d  macIsCsmOperational                                             
10039e91  macSecCpy                                                       
10039ea5  macUpdateCsmPhyParam                                            
10039eb9  macGetCSMPhy                                                    
10039ec1  macNoAction                                                     
10039ec5  MAC_MlmeSetReq                                                  
1003a115  macMRFSKGetPhyDesc                                              
1003a169  MAC_MlmeGetReq                                                  
1003a1b9  MAC_GetPHYParamReq                                              
1003a1f9  MAC_SetPHYParamReq                                              
1003a239  macPibReset                                                     
1003a275  MAC_MlmeGetReqSize                                              
1003a29d  macIEEEGetPhyDesc                                               
1003a2ad  macApiScanReq                                                   
1003a599  macScanRxBeacon                                                 
1003a689  MAC_MlmeScanReq                                                 
1003a839  macScanComplete                                                 
1003a8b9  macScanStartTimer                                               
1003a931  macScanCnfInit                                                  
1003a96d  macScanFailedInProgress                                         
1003a99d  MAC_MlmeSetSecurityReq                                          
1003ac6d  macSecurityPibReset                                             
1003af09  MAC_MlmeGetSecurityReq                                          
1003b101  MAC_MlmeGetSecurityReqSize                                      
1003b159  MAC_MlmeGetPointerSecurityReq                                   
1003b199  macSecurityPibIndex                                             
1003b9f1  macUpdatePanId                                                  
1003ba75  macGetEUIIndex                                                  
1003bb81  macGetEUI                                                       
1003c6e9  macWrapperGetDefaultSourceKey                                   
20000000  ti_sysbios_family_arm_m3_Hwi_ramVectors                         
20000100  xdcRomConstPtr                                                  
20000104  xdcRomExternFuncPtr                                             
20000108  xdcRomStatePtr                                                  
2000010c  RAM_MAC_BASE_ADDR                                               
2000035c  menuBuff                                                        
20000a37  AppTaskId                                                       
20000a48  pMacCbackQueryRetransmit                                        
20000a4c  pMacCbackCheckPending                                           
20000a50  macSem                                                          
20000aa8  macTask                                                         
200012f9  Main_assertReason                                               
200012fc  macUser0Cfg                                                     
20001310  Main_user1Cfg                                                   
20001358  appTask                                                         
200019ac  Cllc_events                                                     
200019fc  Cllc_statistics                                                 
20001a84  Cllc_associatedDevList                                          
20001cdd  Csf_keys                                                        
20001cde  savedCllcState                                                  
20001cdf  permitJoining                                                   
20001ce6  Csf_events                                                      
20001d14  csfCuiHndl                                                      
20001d18  collectorStatusLine                                             
20001d1c  deviceStatusLine                                                
20001d20  numJoinDevStatusLine                                            
20001e88  RF_cmdNop                                                       
20001e98  RF_cmdNopFg                                                     
20001ea8  RF_cmdRxAckCmd                                                  
20001ebc  RF_cmdFs                                                        
20001ed4  RF_cmdIEEETx                                                    
20001eec  RF_cmdPropCs                                                    
20001f08  RF_cmdPropCsSlotted                                             
20001f24  RF_cmdRadioSetup                                                
20001f44  RF_cmdIEEECsma                                                  
20001f64  RF_cmdPropTxAdv                                                 
20001f84  RF_cmdPropRadioDivSetup                                         
20001fb4  RF_cmdPropRxAdv                                                 
20001fe4  RF_cmdIEEERx                                                    
20002020  taskCnt                                                         
20002030  heapmgrMemFreeTotal                                             
2000203c  HEAPMGR_SIZE                                                    
20002040  taskTbl                                                         
200021a8  PowerCC26X2_module                                              
200022b8  ROM_stateStruct                                                 
200022b8  ti_sysbios_knl_Clock_Module__state__V                           
200022e4  ti_sysbios_family_arm_cc26xx_TimestampProvider_Module__state__V 
200022e8  xdc_runtime_Startup_Module__state__V                            
200022f0  xdc_runtime_Registry_Module__state__V                           
200022f8  ti_sysbios_BIOS_Module__state__V                                
2000231c  ti_sysbios_knl_Swi_Module__state__V                             
20002338  ti_sysbios_knl_Task_Module__state__V                            
2000237c  xdc_runtime_Memory_Module__state__V                             
20002380  xdc_runtime_System_Module__state__V                             
20002388  ti_sysbios_family_arm_m3_Hwi_Module__state__V                   
200023bc  ti_sysbios_family_arm_cc26xx_Timer_Module__state__V             
200023c4  macSrcMatchIsAckAllPending                                      
200023c5  macSrcResIndex                                                  
200023c8  reqAccessAlloc                                                  
200023ca  rxCmdHandle                                                     
200023cc  fsCmdHandle                                                     
200023d4  macRfDrvTblPtr                                                  
200023d8  lastPostCmd                                                     
200023dc  macSfdDetectCback                                               
200023e4  macTxTimestamp                                                  
200023e8  pMacRadioConfig                                                 
200023f8  macRxOutputSubG                                                 
20002404  macRxOutputIeee                                                 
20002414  macFrmFilter                                                    
20002424  macSrcShortAddrList                                             
20002440  macSrcExtAddrList                                               
20002470  macMRFSKGenPhyTable                                             
20002514  Collector_events                                                
20002528  Collector_statistics                                            
20002564  Collector_macCallbacks                                          
200025ae  gAction                                                         
200025af  NVOCMP_size                                                     
200025dc  NVOCMP_nvHandle                                                 
20002624  RF_prop_2gfsk50kbps154g                                         
20002634  txPowerTable_2gfsk50kbps154g                                    
20002698  fhObject                                                        
20002704  appSubMenu                                                      
2000275c  cuiMultiMenu                                                    
200027ac  ti_sysbios_knl_Task_Object__table__V                            
200027f8  ti_sysbios_family_arm_cc26xx_Timer_Object__table__V             
20002848  pRfMode                                                         
2000284c  pRfPowerTable                                                   
20002850  pMaxPower                                                       
20002854  RF_handle                                                       
20002858  macPhyTxPower                                                   
20002860  RF_params                                                       
20002880  commissionSubMenu                                               
200028c0  configureSubMenu                                                
20002900  csfMainMenu                                                     
20002940  ti_sysbios_gates_GateMutex_Object__table__V                     
20002979  appTaskId                                                       
20002980  appEvents                                                       
20002988  ApiMac_extAddr                                                  
20002990  appSem                                                          
200029ac  macBeaconPayload                                                
200029e0  pMacDataTx                                                      
200029e4  macDataTxIndirect                                               
200029e8  macDataRequeueIndirect                                          
200029ec  macDataRxBeaconCritical                                         
200029f0  macDataTxBeaconComplete                                         
200029f4  macDataSetSched                                                 
200029f8  macDataCheckSched                                               
200029fc  macDataCheckTxTime                                              
20002a00  macDataBeaconRequeue                                            
20002a04  csmPhy                                                          
20002a08  macTimerRollover                                                
20002a0c  macTimerNewRollover                                             
20002a10  ti_sysbios_knl_Swi_Module_State_0_readyQ__A                     
20002a40  ti_sysbios_knl_Swi_Object__table__V                             
20002a70  ti_sysbios_knl_Task_Module_State_0_readyQ__A                    
20002aa0  macSpecUsecsPerSymbol                                           
20002aa4  macPrevPeriodRatCount                                           
20002aa8  macSymbolTimerRollover                                          
20002aac  macSymbolTimerTrigger                                           
20002ac8  txCmdHandle                                                     
20002aca  macRadioAckIeeeFrame                                            
20002ad0  pMacEnhancedAck                                                 
20002ad4  macRadioAckFrame                                                
20002adc  macAIFSTimer                                                    
20002aec  macTxSlottedDelayFactor                                         
20002aed  macTxBe                                                         
20002aee  macTxType                                                       
20002aef  macTxGpInterframeDelay                                          
20002af0  txAckReq                                                        
20002af3  txSeqn                                                          
20002af5  numTx                                                           
20002af6  macTxCsmaBackoffDelay                                           
20002af8  macCsmaRtcTimerId                                               
20002afc  macAckDbg                                                       
20002b10  macActionSet                                                    
20002b58  ti_sysbios_knl_Clock_Object__table__V                           
20002b78  xdc_runtime_Error_IgnoreBlock                                   
20002b98  pOverrides_2gfsk50kbps154g                                      
20002bb4  ti_sysbios_family_arm_m3_Hwi_Object__table__V                   
20002be1  CryptoResourceCC26XX_pollingFlag                                
20002be4  macStateTbl                                                     
20002c08  gpioCallbackFunctions                                           
20002c18  gpioPinConfigs                                                  
20002c28  macCfg                                                          
20002c38  lastRatChanA                                                    
20002c39  lastRatChanB                                                    
20002c3a  macRxCmdActive                                                  
20002c3b  macTxCmdActive                                                  
20002c3c  macFsCmdActive                                                  
20002c3e  macReqAccessCnt                                                 
20002c40  macReqAccessTimeCnt                                             
20002c42  macReqAccErrCnt                                                 
20002c44  numRfCmd                                                        
20002c45  numRxCmd                                                        
20002c46  numRxPostCmd                                                    
20002c50  pClockHandleEDScan                                              
20002c54  ti_sysbios_heaps_HeapCallback_Object__table__V                  
20002c60  _lock                                                           
20002c64  _unlock                                                         
20002c68  pinUpperBound                                                   
20002c6c  pinLowerBound                                                   
20002c78  ti_sysbios_family_arm_m3_Hwi_Module__root__V                    
20002c80  ti_sysbios_gates_GateHwi_Module__root__V                        
20002c88  ti_sysbios_gates_GateMutexPri_Module__root__V                   
20002c90  ti_sysbios_gates_GateMutex_Module__root__V                      
20002c98  ti_sysbios_hal_Hwi_Module__root__V                              
20002ca0  ti_sysbios_heaps_HeapCallback_Module__root__V                   
20002ca8  ti_sysbios_heaps_HeapMem_Module__root__V                        
20002cb0  ti_sysbios_knl_Clock_Module__root__V                            
20002cb8  ti_sysbios_knl_Event_Module__root__V                            
20002cc0  ti_sysbios_knl_Mailbox_Module__root__V                          
20002cc8  ti_sysbios_knl_Queue_Module__root__V                            
20002cd0  ti_sysbios_knl_Semaphore_Module__root__V                        
20002cd8  ti_sysbios_knl_Swi_Module__root__V                              
20002ce0  ti_sysbios_knl_Task_Module__root__V                             
20002cf4  macRadioYielded                                                 
20002cf5  bInSwi                                                          
20002cf6  macTxSlottedDelay                                               
20002cf7  macSrcMatchIsEnabled                                            
20002cf8  macTasksEvents                                                  
20002cfc  errno                                                           
20002d00  main_func_sp                                                    
20002d04  ti_sysbios_family_arm_m3_Hwi_Module_State_0_excContext__A       
20002d08  ti_sysbios_family_arm_m3_Hwi_Module_State_0_excStack__A         
20002d0c  ti_sysbios_knl_Task_Module_State_0_idleTask__A                  
20002d10  ti_sysbios_family_arm_m3_Hwi_Module_State_0_excActive__A        
20002d13  macSleepState                                                   
20003168  ti_sysbios_knl_Task_Instance_State_0_stack__A                   
20003368  uartCC26XXObjects                                               
20003494  enhancedAckBuf                                                  
20003590  ti_sysbios_family_arm_m3_Hwi_dispatchTable                      
20003710  macPib                                                          
20003798  pinHandleTable                                                  
20003814  LEDObjects                                                      
2000388c  macScan                                                         
200038e0  ButtonObjects                                                   
20003930  macSecurityPib                                                  
20003970  macBeaconCoord                                                  
200039ac  macDeviceAction1                                                
20003a18  macBeaconDevice                                                 
20003a4c  macCoord                                                        
20003a78  macDevice                                                       
20003aa4  macRxFilter                                                     
20003aa5  rxPromiscuousMode                                               
20003aa8  rxSeqNum                                                        
20003ab0  macRxDataEntryOffset                                            
20003ab4  rxRadioBufferPtr                                                
20003ac4  macRxDataEntryQueue                                             
20003acc  macMgmtAction1                                                  
20003b54  macBeacon                                                       
20003c00  CryptoResourceCC26XX_accessSemaphore                            
20003c1c  CryptoResourceCC26XX_hwi                                        
20003c38  CryptoResourceCC26XX_operationSemaphore                         
20003c54  macCoordAction2                                                 
20003c70  macReset                                                        
20003c8c  aesccmCC26XXObjects                                             
20003ca4  macScanAction                                                   
20003ce4  macDeviceAction2                                                
20003cf8  macMgmtAction2                                                  
20003d0c  macBeaconDeviceAction                                           
20003d1c  macCoordAction3                                                 
20003d2c  macData                                                         
20003d3c  macDataTxDelay                                                  
20003d64  macMain                                                         
20003d78  macBeaconCoordAction1                                           
20003d80  macCoordAction1                                                 
20003d8c  AESCCM_handle                                                   
20003d90  ClockP_tickPeriod                                               
20003d94  FH_test_var                                                     
20003d98  PowerCC26XX_swiKey                                              
20003d9c  PowerCC26XX_taskKey                                             
20003da0  macCryptoDrvTblPtr                                              
20003da4  macTimerActive                                                  
20003da8  nvsCC26XXObjects                                                
20003dac  timerAlignedQ                                                   
20003db0  timerUnalignedQ                                                 
20003db6  driverlib_release_0_55938                                       
20003db7  macMgmt                                                         
20003db8  macPanCoordinator                                               
20003db9  macPhyChannel                                                   
20003dba  macPwr                                                          
20003dbb  macRxActive                                                     
20003dbc  macRxEnableFlags                                                
20003dbd  macRxOutgoingAckFlag                                            
20003dbe  macSymbolTimerImpending                                         
20003dbf  macTaskId                                                       
20003dc0  macTxActive                                                     
20003dc1  macUnitBackoffPeriod                                            
20003dc2  rxFhRsl                                                         
20003dc3  heapStart                                                       
20013aa0  __stack                                                         
20013aa0  heapEnd                                                         
20014000  __STACK_END                                                     
20014000  __STACK_TOP                                                     
e000e000  ti_sysbios_family_arm_m3_Hwi_nvic                               
ffffffff  __TI_pprof_out_hndl                                             
ffffffff  __TI_prof_data_size                                             
ffffffff  __TI_prof_data_start                                            
ffffffff  __binit__                                                       
ffffffff  __c_args__                                                      
ffffffff  binit                                                           
UNDEFED   PWM_config                                                      
UNDEFED   PWM_count                                                       
UNDEFED   SHT$$INIT_ARRAY$$Base                                           
UNDEFED   SHT$$INIT_ARRAY$$Limit                                          

[1841 symbols]
